                                      1 ;--------------------------------------------------------
                                      2 ; File Created by SDCC : free open source ISO C Compiler 
                                      3 ; Version 4.3.2 #14228 (MINGW64)
                                      4 ;--------------------------------------------------------
                                      5 	.module StateGame
                                      6 	.optsdcc -msm83
                                      7 	
                                      8 ;--------------------------------------------------------
                                      9 ; Public variables in this module
                                     10 ;--------------------------------------------------------
                                     11 	.globl _Update_StateGame
                                     12 	.globl _Start_StateGame
                                     13 	.globl b_e_configure
                                     14 	.globl _e_configure
                                     15 	.globl _SpriteManagerAdd
                                     16 	.globl _GetMapSize
                                     17 	.globl _UpdateMapTile
                                     18 	.globl _LoadMap
                                     19 	.globl _InitScroll
                                     20 	.globl _ScrollSetTiles
                                     21 	.globl _move_camera_destx
                                     22 	.globl _move_camera_desty
                                     23 	.globl _move_camera_right
                                     24 	.globl _move_camera_left
                                     25 	.globl _move_camera_down
                                     26 	.globl _move_camera_up
                                     27 	.globl _update_hud
                                     28 	.globl _song_selection
                                     29 	.globl _s_orpheus
                                     30 	.globl _s_camera
                                     31 	.globl _coll_surface_intro
                                     32 	.globl _coll_tiles_intro
                                     33 	.globl ___bank_StateGame
                                     34 	.globl b_UpdateHUD
                                     35 	.globl _UpdateHUD
                                     36 	.globl _fill_bar_idx
                                     37 ;--------------------------------------------------------
                                     38 ; special function registers
                                     39 ;--------------------------------------------------------
                                     40 ;--------------------------------------------------------
                                     41 ; ram data
                                     42 ;--------------------------------------------------------
                                     43 	.area _DATA
                           000000    44 G$s_camera$0_0$0==.
      000000                         45 _s_camera::
      000000                         46 	.ds 2
                           000002    47 G$s_orpheus$0_0$0==.
      000002                         48 _s_orpheus::
      000002                         49 	.ds 2
                           000004    50 G$song_selection$0_0$0==.
      000004                         51 _song_selection::
      000004                         52 	.ds 1
                                     53 ;--------------------------------------------------------
                                     54 ; ram data
                                     55 ;--------------------------------------------------------
                                     56 	.area _INITIALIZED
                           000000    57 G$update_hud$0_0$0==.
      000000                         58 _update_hud::
      000000                         59 	.ds 1
                           000001    60 G$move_camera_up$0_0$0==.
      000001                         61 _move_camera_up::
      000001                         62 	.ds 1
                           000002    63 G$move_camera_down$0_0$0==.
      000002                         64 _move_camera_down::
      000002                         65 	.ds 1
                           000003    66 G$move_camera_left$0_0$0==.
      000003                         67 _move_camera_left::
      000003                         68 	.ds 1
                           000004    69 G$move_camera_right$0_0$0==.
      000004                         70 _move_camera_right::
      000004                         71 	.ds 1
                           000005    72 G$move_camera_desty$0_0$0==.
      000005                         73 _move_camera_desty::
      000005                         74 	.ds 2
                           000007    75 G$move_camera_destx$0_0$0==.
      000007                         76 _move_camera_destx::
      000007                         77 	.ds 2
                                     78 ;--------------------------------------------------------
                                     79 ; absolute external ram data
                                     80 ;--------------------------------------------------------
                                     81 	.area _DABS (ABS)
                                     82 ;--------------------------------------------------------
                                     83 ; global & static initialisations
                                     84 ;--------------------------------------------------------
                                     85 	.area _HOME
                                     86 	.area _GSINIT
                                     87 	.area _GSFINAL
                                     88 	.area _GSINIT
                                     89 ;--------------------------------------------------------
                                     90 ; Home
                                     91 ;--------------------------------------------------------
                                     92 	.area _HOME
                                     93 	.area _HOME
                                     94 ;--------------------------------------------------------
                                     95 ; code
                                     96 ;--------------------------------------------------------
                                     97 	.area _CODE_255
                           000000    98 	G$Start_StateGame$0$0	= .
                                     99 	.globl	G$Start_StateGame$0$0
                           000000   100 	C$StateGame.c$55$0_0$194	= .
                                    101 	.globl	C$StateGame.c$55$0_0$194
                                    102 ;StateGame.c:55: void START() {
                                    103 ;	---------------------------------
                                    104 ; Function Start_StateGame
                                    105 ; ---------------------------------
      000000                        106 _Start_StateGame::
                           000000   107 	C$StateGame.c$57$1_0$194	= .
                                    108 	.globl	C$StateGame.c$57$1_0$194
                                    109 ;StateGame.c:57: scroll_top_movement_limit = 72u;
      000000 21r00r00         [12]  110 	ld	hl, #_scroll_top_movement_limit
      000003 36 48            [12]  111 	ld	(hl), #0x48
                           000005   112 	C$StateGame.c$58$1_0$194	= .
                                    113 	.globl	C$StateGame.c$58$1_0$194
                                    114 ;StateGame.c:58: scroll_bottom_movement_limit = 72u;
      000005 21r00r00         [12]  115 	ld	hl, #_scroll_bottom_movement_limit
      000008 36 48            [12]  116 	ld	(hl), #0x48
                           00000A   117 	C$StateGame.c$60$1_0$194	= .
                                    118 	.globl	C$StateGame.c$60$1_0$194
                                    119 ;StateGame.c:60: scroll_target = SpriteManagerAdd(SpriteCamera, ((UINT16) 30u << 3), ((UINT16) 64u << 3));
      00000A 11 00 02         [12]  120 	ld	de, #0x0200
      00000D D5               [16]  121 	push	de
      00000E 11 F0 00         [12]  122 	ld	de, #0x00f0
      000011 3E 01            [ 8]  123 	ld	a, #0x01
      000013 CDr00r00         [24]  124 	call	_SpriteManagerAdd
      000016 21r00r00         [12]  125 	ld	hl, #_scroll_target
      000019 79               [ 4]  126 	ld	a, c
      00001A 22               [ 8]  127 	ld	(hl+), a
      00001B 70               [ 8]  128 	ld	(hl), b
                           00001C   129 	C$StateGame.c$61$1_0$194	= .
                                    130 	.globl	C$StateGame.c$61$1_0$194
                                    131 ;StateGame.c:61: s_orpheus = SpriteManagerAdd(SpriteOrpheus, ((UINT16) 26u << 3) + 3u, ((UINT16) 67u << 3));
      00001C 11 18 02         [12]  132 	ld	de, #0x0218
      00001F D5               [16]  133 	push	de
      000020 11 D3 00         [12]  134 	ld	de, #0x00d3
      000023 AF               [ 4]  135 	xor	a, a
      000024 CDr00r00         [24]  136 	call	_SpriteManagerAdd
      000027 21r02r00         [12]  137 	ld	hl, #_s_orpheus
      00002A 79               [ 4]  138 	ld	a, c
      00002B 22               [ 8]  139 	ld	(hl+), a
      00002C 70               [ 8]  140 	ld	(hl), b
                           00002D   141 	C$StateGame.c$62$1_1$195	= .
                                    142 	.globl	C$StateGame.c$62$1_1$195
                                    143 ;StateGame.c:62: Sprite* e_enemy = SpriteManagerAdd(SpriteSkeleton, ((UINT16) 28u << 3), ((UINT16) 60u << 3));
      00002D 11 E0 01         [12]  144 	ld	de, #0x01e0
      000030 D5               [16]  145 	push	de
      000031 11 E0 00         [12]  146 	ld	de, #0x00e0
      000034 3E 02            [ 8]  147 	ld	a, #0x02
      000036 CDr00r00         [24]  148 	call	_SpriteManagerAdd
                           000039   149 	C$StateGame.c$63$1_1$195	= .
                                    150 	.globl	C$StateGame.c$63$1_1$195
                                    151 ;StateGame.c:63: e_configure(e_enemy, SKELETON);
      000039 AF               [ 4]  152 	xor	a, a
      00003A F5               [16]  153 	push	af
      00003B 33               [ 8]  154 	inc	sp
      00003C C5               [16]  155 	push	bc
      00003D 1Er00            [ 8]  156 	ld	e, #b_e_configure
      00003F 21r00r00         [12]  157 	ld	hl, #_e_configure
      000042 CDr00r00         [24]  158 	call	___sdcc_bcall_ehl
      000045 E8 03            [16]  159 	add	sp, #3
                           000047   160 	C$StateGame.c$65$1_1$195	= .
                                    161 	.globl	C$StateGame.c$65$1_1$195
                                    162 ;StateGame.c:65: InitScroll(BANK(omapintro), &omapintro, coll_tiles_intro, coll_surface_intro);
      000047 11r00r00         [12]  163 	ld	de, #_omapintro+0
      00004A 0Er00            [ 8]  164 	ld	c, #<(___bank_omapintro)
      00004C 21rF3r00         [12]  165 	ld	hl, #_coll_surface_intro
      00004F E5               [16]  166 	push	hl
      000050 21rCFr00         [12]  167 	ld	hl, #_coll_tiles_intro
      000053 E5               [16]  168 	push	hl
      000054 79               [ 4]  169 	ld	a, c
      000055 CDr00r00         [24]  170 	call	_InitScroll
                           000058   171 	C$StateGame.c$67$1_1$195	= .
                                    172 	.globl	C$StateGame.c$67$1_1$195
                                    173 ;StateGame.c:67: INIT_FONT(font, PRINT_BKG);
      000058 21r00r00         [12]  174 	ld	hl, #_print_target
      00005B 36 00            [12]  175 	ld	(hl), #0x00
      00005D 01r00r00         [12]  176 	ld	bc, #_font+0
      000060 1Er00            [ 8]  177 	ld	e, #<(___bank_font)
      000062 C5               [16]  178 	push	bc
      000063 FAr00r00         [16]  179 	ld	a, (#_last_tile_loaded)
      000066 CDr00r00         [24]  180 	call	_ScrollSetTiles
      000069 21r00r00         [12]  181 	ld	hl, #_font_offset
      00006C 79               [ 4]  182 	ld	a, c
      00006D 22               [ 8]  183 	ld	(hl+), a
      00006E 70               [ 8]  184 	ld	(hl), b
                           00006F   185 	C$StateGame.c$68$1_1$195	= .
                                    186 	.globl	C$StateGame.c$68$1_1$195
                                    187 ;StateGame.c:68: INIT_HUD(hudmap);
      00006F 11r00r00         [12]  188 	ld	de, #_hudmap
      000072 0Er00            [ 8]  189 	ld	c, #<(___bank_hudmap)
      000074 21r00r00         [12]  190 	ld	hl, #_scroll_h_border
      000077 E5               [16]  191 	push	hl
      000078 21 00 00         [12]  192 	ld	hl, #0x0000
      00007B E5               [16]  193 	push	hl
      00007C 79               [ 4]  194 	ld	a, c
      00007D CDr00r00         [24]  195 	call	_GetMapSize
      000080 21r00r00         [12]  196 	ld	hl, #_scroll_h_border
      000083 7E               [ 8]  197 	ld	a, (hl)
      000084 87               [ 4]  198 	add	a, a
      000085 87               [ 4]  199 	add	a, a
      000086 87               [ 4]  200 	add	a, a
      000087 77               [ 8]  201 	ld	(hl), a
      000088 3E 07            [ 8]  202 	ld	a, #0x07
      00008A E0r00            [12]  203 	ldh	(_WX_REG + 0), a
      00008C 3E 90            [ 8]  204 	ld	a, #0x90
      00008E 96               [ 8]  205 	sub	a, (hl)
      00008F E0r00            [12]  206 	ldh	(_WY_REG + 0), a
      000091 01r00r00         [12]  207 	ld	bc, #_hudmap
      000094 3Er00            [ 8]  208 	ld	a, #<(___bank_hudmap)
      000096 C5               [16]  209 	push	bc
      000097 67               [ 4]  210 	ld	h, a
      000098 2E 00            [ 8]  211 	ld	l, #0x00
      00009A E5               [16]  212 	push	hl
      00009B 1E 00            [ 8]  213 	ld	e, #0x00
      00009D 3E 01            [ 8]  214 	ld	a, #0x01
      00009F CDr00r00         [24]  215 	call	_LoadMap
      0000A2 21r00r00         [12]  216 	ld	hl, #_hud_map_offset
      0000A5 79               [ 4]  217 	ld	a, c
      0000A6 22               [ 8]  218 	ld	(hl+), a
      0000A7 70               [ 8]  219 	ld	(hl), b
      0000A8 F0r00            [12]  220 	ldh	a, (_LCDC_REG + 0)
      0000AA F6 20            [ 8]  221 	or	a, #0x20
      0000AC E0r00            [12]  222 	ldh	(_LCDC_REG + 0), a
                           0000AE   223 	C$StateGame.c$72$1_1$195	= .
                                    224 	.globl	C$StateGame.c$72$1_1$195
                                    225 ;StateGame.c:72: update_hud = 1;
      0000AE 21r00r00         [12]  226 	ld	hl, #_update_hud
      0000B1 36 01            [12]  227 	ld	(hl), #0x01
                           0000B3   228 	C$StateGame.c$73$1_1$195	= .
                                    229 	.globl	C$StateGame.c$73$1_1$195
                                    230 ;StateGame.c:73: move_camera_up = 0u;
      0000B3 21r01r00         [12]  231 	ld	hl, #_move_camera_up
      0000B6 36 00            [12]  232 	ld	(hl), #0x00
                           0000B8   233 	C$StateGame.c$74$1_1$195	= .
                                    234 	.globl	C$StateGame.c$74$1_1$195
                                    235 ;StateGame.c:74: move_camera_desty = 0u;
      0000B8 AF               [ 4]  236 	xor	a, a
      0000B9 21r05r00         [12]  237 	ld	hl, #_move_camera_desty
      0000BC 22               [ 8]  238 	ld	(hl+), a
      0000BD 77               [ 8]  239 	ld	(hl), a
                           0000BE   240 	C$StateGame.c$75$1_1$195	= .
                                    241 	.globl	C$StateGame.c$75$1_1$195
                                    242 ;StateGame.c:75: move_camera_destx = 0u;
      0000BE AF               [ 4]  243 	xor	a, a
      0000BF 21r07r00         [12]  244 	ld	hl, #_move_camera_destx
      0000C2 22               [ 8]  245 	ld	(hl+), a
      0000C3 77               [ 8]  246 	ld	(hl), a
                           0000C4   247 	C$StateGame.c$76$1_1$195	= .
                                    248 	.globl	C$StateGame.c$76$1_1$195
                                    249 ;StateGame.c:76: move_camera_down = 0u;
      0000C4 21r02r00         [12]  250 	ld	hl, #_move_camera_down
      0000C7 36 00            [12]  251 	ld	(hl), #0x00
                           0000C9   252 	C$StateGame.c$77$1_1$195	= .
                                    253 	.globl	C$StateGame.c$77$1_1$195
                                    254 ;StateGame.c:77: move_camera_left = 0u;
      0000C9 21r03r00         [12]  255 	ld	hl, #_move_camera_left
      0000CC 36 00            [12]  256 	ld	(hl), #0x00
                           0000CE   257 	C$StateGame.c$78$1_1$194	= .
                                    258 	.globl	C$StateGame.c$78$1_1$194
                                    259 ;StateGame.c:78: }
                           0000CE   260 	C$StateGame.c$78$1_1$194	= .
                                    261 	.globl	C$StateGame.c$78$1_1$194
                           0000CE   262 	XG$Start_StateGame$0$0	= .
                                    263 	.globl	XG$Start_StateGame$0$0
      0000CE C9               [16]  264 	ret
                           0000FF   265 G$__bank_StateGame$0_0$0 == 0x00ff
                           0000FF   266 ___bank_StateGame	=	0x00ff
                           0000CF   267 G$coll_tiles_intro$0_0$0 == .
      0000CF                        268 _coll_tiles_intro:
      0000CF 04                     269 	.db #0x04	; 4
      0000D0 33                     270 	.db #0x33	; 51	'3'
      0000D1 29                     271 	.db #0x29	; 41
      0000D2 35                     272 	.db #0x35	; 53	'5'
      0000D3 3C                     273 	.db #0x3c	; 60
      0000D4 3D                     274 	.db #0x3d	; 61
      0000D5 3E                     275 	.db #0x3e	; 62
      0000D6 3F                     276 	.db #0x3f	; 63
      0000D7 40                     277 	.db #0x40	; 64
      0000D8 41                     278 	.db #0x41	; 65	'A'
      0000D9 52                     279 	.db #0x52	; 82	'R'
      0000DA 57                     280 	.db #0x57	; 87	'W'
      0000DB 58                     281 	.db #0x58	; 88	'X'
      0000DC 59                     282 	.db #0x59	; 89	'Y'
      0000DD 5A                     283 	.db #0x5a	; 90	'Z'
      0000DE 5B                     284 	.db #0x5b	; 91
      0000DF 5C                     285 	.db #0x5c	; 92
      0000E0 5D                     286 	.db #0x5d	; 93
      0000E1 5E                     287 	.db #0x5e	; 94
      0000E2 5F                     288 	.db #0x5f	; 95
      0000E3 60                     289 	.db #0x60	; 96
      0000E4 69                     290 	.db #0x69	; 105	'i'
      0000E5 6A                     291 	.db #0x6a	; 106	'j'
      0000E6 6C                     292 	.db #0x6c	; 108	'l'
      0000E7 6D                     293 	.db #0x6d	; 109	'm'
      0000E8 70                     294 	.db #0x70	; 112	'p'
      0000E9 71                     295 	.db #0x71	; 113	'q'
      0000EA 78                     296 	.db #0x78	; 120	'x'
      0000EB 79                     297 	.db #0x79	; 121	'y'
      0000EC 7A                     298 	.db #0x7a	; 122	'z'
      0000ED 7B                     299 	.db #0x7b	; 123
      0000EE 7C                     300 	.db #0x7c	; 124
      0000EF 7D                     301 	.db #0x7d	; 125
      0000F0 7E                     302 	.db #0x7e	; 126
      0000F1 7F                     303 	.db #0x7f	; 127
      0000F2 00                     304 	.db #0x00	; 0
                           0000F3   305 G$coll_surface_intro$0_0$0 == .
      0000F3                        306 _coll_surface_intro:
      0000F3 01                     307 	.db #0x01	; 1
      0000F4 42                     308 	.db #0x42	; 66	'B'
      0000F5 43                     309 	.db #0x43	; 67	'C'
      0000F6 45                     310 	.db #0x45	; 69	'E'
      0000F7 46                     311 	.db #0x46	; 70	'F'
      0000F8 61                     312 	.db #0x61	; 97	'a'
      0000F9 62                     313 	.db #0x62	; 98	'b'
      0000FA 00                     314 	.db #0x00	; 0
                           0000FB   315 	G$Update_StateGame$0$0	= .
                                    316 	.globl	G$Update_StateGame$0$0
                           0000FB   317 	C$StateGame.c$80$1_1$196	= .
                                    318 	.globl	C$StateGame.c$80$1_1$196
                                    319 ;StateGame.c:80: void UPDATE() {
                                    320 ;	---------------------------------
                                    321 ; Function Update_StateGame
                                    322 ; ---------------------------------
      0000FB                        323 _Update_StateGame::
      0000FB E8 FA            [16]  324 	add	sp, #-6
                           0000FD   325 	C$StateGame.c$82$1_2$196	= .
                                    326 	.globl	C$StateGame.c$82$1_2$196
                                    327 ;StateGame.c:82: if(scroll_target->y > move_camera_desty){
      0000FD 21r00r00         [12]  328 	ld	hl, #_scroll_target
      000100 2A               [ 8]  329 	ld	a, (hl+)
      000101 4F               [ 4]  330 	ld	c, a
      000102 46               [ 8]  331 	ld	b, (hl)
      000103 21 0E 00         [12]  332 	ld	hl, #0x000e
      000106 09               [ 8]  333 	add	hl, bc
      000107 33               [ 8]  334 	inc	sp
      000108 33               [ 8]  335 	inc	sp
      000109 E5               [16]  336 	push	hl
                           00010A   337 	C$StateGame.c$81$1_0$196	= .
                                    338 	.globl	C$StateGame.c$81$1_0$196
                                    339 ;StateGame.c:81: if(move_camera_up){
      00010A FAr01r00         [16]  340 	ld	a, (#_move_camera_up)
      00010D B7               [ 4]  341 	or	a, a
      00010E 28 27            [12]  342 	jr	Z, 00122$
                           000110   343 	C$StateGame.c$82$1_2$196	= .
                                    344 	.globl	C$StateGame.c$82$1_2$196
                                    345 ;StateGame.c:82: if(scroll_target->y > move_camera_desty){
      000110 D1               [12]  346 	pop	de
      000111 D5               [16]  347 	push	de
      000112 1A               [ 8]  348 	ld	a, (de)
      000113 4F               [ 4]  349 	ld	c, a
      000114 13               [ 8]  350 	inc	de
      000115 1A               [ 8]  351 	ld	a, (de)
      000116 47               [ 4]  352 	ld	b, a
      000117 21r05r00         [12]  353 	ld	hl, #_move_camera_desty
      00011A 2A               [ 8]  354 	ld	a, (hl+)
      00011B 91               [ 4]  355 	sub	a, c
      00011C 7E               [ 8]  356 	ld	a, (hl)
      00011D 98               [ 4]  357 	sbc	a, b
      00011E 30 0A            [12]  358 	jr	NC, 00102$
                           000120   359 	C$StateGame.c$83$3_0$198	= .
                                    360 	.globl	C$StateGame.c$83$3_0$198
                                    361 ;StateGame.c:83: scroll_target->y -= V_CAMERA;
      000120 0B               [ 8]  362 	dec	bc
      000121 0B               [ 8]  363 	dec	bc
      000122 E1               [12]  364 	pop	hl
      000123 E5               [16]  365 	push	hl
      000124 79               [ 4]  366 	ld	a, c
      000125 22               [ 8]  367 	ld	(hl+), a
      000126 70               [ 8]  368 	ld	(hl), b
      000127 C3r16r03         [16]  369 	jp	00141$
      00012A                        370 00102$:
                           00012A   371 	C$StateGame.c$85$3_0$199	= .
                                    372 	.globl	C$StateGame.c$85$3_0$199
                                    373 ;StateGame.c:85: a_walk_counter_y = -8;
      00012A 21r00r00         [12]  374 	ld	hl, #_a_walk_counter_y
      00012D 36 F8            [12]  375 	ld	(hl), #0xf8
                           00012F   376 	C$StateGame.c$86$3_0$199	= .
                                    377 	.globl	C$StateGame.c$86$3_0$199
                                    378 ;StateGame.c:86: move_camera_up = 0;
      00012F 21r01r00         [12]  379 	ld	hl, #_move_camera_up
      000132 36 00            [12]  380 	ld	(hl), #0x00
                           000134   381 	C$StateGame.c$88$2_0$197	= .
                                    382 	.globl	C$StateGame.c$88$2_0$197
                                    383 ;StateGame.c:88: return;
      000134 C3r16r03         [16]  384 	jp	00141$
      000137                        385 00122$:
                           000137   386 	C$StateGame.c$89$1_0$196	= .
                                    387 	.globl	C$StateGame.c$89$1_0$196
                                    388 ;StateGame.c:89: }else if(move_camera_down){
      000137 FAr02r00         [16]  389 	ld	a, (#_move_camera_down)
      00013A B7               [ 4]  390 	or	a, a
      00013B 28 28            [12]  391 	jr	Z, 00119$
                           00013D   392 	C$StateGame.c$82$1_2$196	= .
                                    393 	.globl	C$StateGame.c$82$1_2$196
                                    394 ;StateGame.c:82: if(scroll_target->y > move_camera_desty){
      00013D D1               [12]  395 	pop	de
      00013E D5               [16]  396 	push	de
      00013F 1A               [ 8]  397 	ld	a, (de)
      000140 4F               [ 4]  398 	ld	c, a
      000141 13               [ 8]  399 	inc	de
      000142 1A               [ 8]  400 	ld	a, (de)
      000143 47               [ 4]  401 	ld	b, a
                           000144   402 	C$StateGame.c$90$2_0$200	= .
                                    403 	.globl	C$StateGame.c$90$2_0$200
                                    404 ;StateGame.c:90: if(scroll_target->y < move_camera_desty){
      000144 21r05r00         [12]  405 	ld	hl, #_move_camera_desty
      000147 79               [ 4]  406 	ld	a, c
      000148 96               [ 8]  407 	sub	a, (hl)
      000149 23               [ 8]  408 	inc	hl
      00014A 78               [ 4]  409 	ld	a, b
      00014B 9E               [ 8]  410 	sbc	a, (hl)
      00014C 30 0A            [12]  411 	jr	NC, 00105$
                           00014E   412 	C$StateGame.c$91$3_0$201	= .
                                    413 	.globl	C$StateGame.c$91$3_0$201
                                    414 ;StateGame.c:91: scroll_target->y+=V_CAMERA;
      00014E 03               [ 8]  415 	inc	bc
      00014F 03               [ 8]  416 	inc	bc
      000150 E1               [12]  417 	pop	hl
      000151 E5               [16]  418 	push	hl
      000152 79               [ 4]  419 	ld	a, c
      000153 22               [ 8]  420 	ld	(hl+), a
      000154 70               [ 8]  421 	ld	(hl), b
      000155 C3r16r03         [16]  422 	jp	00141$
      000158                        423 00105$:
                           000158   424 	C$StateGame.c$93$3_0$202	= .
                                    425 	.globl	C$StateGame.c$93$3_0$202
                                    426 ;StateGame.c:93: a_walk_counter_y = +4;
      000158 21r00r00         [12]  427 	ld	hl, #_a_walk_counter_y
      00015B 36 04            [12]  428 	ld	(hl), #0x04
                           00015D   429 	C$StateGame.c$94$3_0$202	= .
                                    430 	.globl	C$StateGame.c$94$3_0$202
                                    431 ;StateGame.c:94: move_camera_down = 0;
      00015D 21r02r00         [12]  432 	ld	hl, #_move_camera_down
      000160 36 00            [12]  433 	ld	(hl), #0x00
                           000162   434 	C$StateGame.c$96$2_0$200	= .
                                    435 	.globl	C$StateGame.c$96$2_0$200
                                    436 ;StateGame.c:96: return;
      000162 C3r16r03         [16]  437 	jp	00141$
      000165                        438 00119$:
                           000165   439 	C$StateGame.c$98$1_2$196	= .
                                    440 	.globl	C$StateGame.c$98$1_2$196
                                    441 ;StateGame.c:98: if(scroll_target->x > move_camera_destx){
      000165 21 0C 00         [12]  442 	ld	hl, #0x000c
      000168 09               [ 8]  443 	add	hl, bc
      000169 E5               [16]  444 	push	hl
      00016A 7D               [ 4]  445 	ld	a, l
      00016B F8 04            [12]  446 	ldhl	sp,	#4
      00016D 77               [ 8]  447 	ld	(hl), a
      00016E E1               [12]  448 	pop	hl
      00016F 7C               [ 4]  449 	ld	a, h
      000170 F8 03            [12]  450 	ldhl	sp,	#3
      000172 77               [ 8]  451 	ld	(hl), a
                           000173   452 	C$StateGame.c$97$1_0$196	= .
                                    453 	.globl	C$StateGame.c$97$1_0$196
                                    454 ;StateGame.c:97: }else if(move_camera_left){
      000173 FAr03r00         [16]  455 	ld	a, (#_move_camera_left)
      000176 B7               [ 4]  456 	or	a, a
      000177 28 2D            [12]  457 	jr	Z, 00116$
                           000179   458 	C$StateGame.c$98$1_2$196	= .
                                    459 	.globl	C$StateGame.c$98$1_2$196
                                    460 ;StateGame.c:98: if(scroll_target->x > move_camera_destx){
      000179 F8 02            [12]  461 	ldhl	sp,#2
      00017B 2A               [ 8]  462 	ld	a, (hl+)
      00017C 5F               [ 4]  463 	ld	e, a
      00017D 56               [ 8]  464 	ld	d, (hl)
      00017E 1A               [ 8]  465 	ld	a, (de)
      00017F 4F               [ 4]  466 	ld	c, a
      000180 13               [ 8]  467 	inc	de
      000181 1A               [ 8]  468 	ld	a, (de)
      000182 47               [ 4]  469 	ld	b, a
      000183 21r07r00         [12]  470 	ld	hl, #_move_camera_destx
      000186 2A               [ 8]  471 	ld	a, (hl+)
      000187 91               [ 4]  472 	sub	a, c
      000188 7E               [ 8]  473 	ld	a, (hl)
      000189 98               [ 4]  474 	sbc	a, b
      00018A 30 0D            [12]  475 	jr	NC, 00108$
                           00018C   476 	C$StateGame.c$99$3_0$204	= .
                                    477 	.globl	C$StateGame.c$99$3_0$204
                                    478 ;StateGame.c:99: scroll_target->x-=V_CAMERA;
      00018C 0B               [ 8]  479 	dec	bc
      00018D 0B               [ 8]  480 	dec	bc
      00018E F8 02            [12]  481 	ldhl	sp,	#2
      000190 2A               [ 8]  482 	ld	a,	(hl+)
      000191 66               [ 8]  483 	ld	h, (hl)
      000192 6F               [ 4]  484 	ld	l, a
      000193 79               [ 4]  485 	ld	a, c
      000194 22               [ 8]  486 	ld	(hl+), a
      000195 70               [ 8]  487 	ld	(hl), b
      000196 C3r16r03         [16]  488 	jp	00141$
      000199                        489 00108$:
                           000199   490 	C$StateGame.c$101$3_0$205	= .
                                    491 	.globl	C$StateGame.c$101$3_0$205
                                    492 ;StateGame.c:101: a_walk_counter_x = -4;
      000199 21r00r00         [12]  493 	ld	hl, #_a_walk_counter_x
      00019C 36 FC            [12]  494 	ld	(hl), #0xfc
                           00019E   495 	C$StateGame.c$102$3_0$205	= .
                                    496 	.globl	C$StateGame.c$102$3_0$205
                                    497 ;StateGame.c:102: move_camera_left = 0;
      00019E 21r03r00         [12]  498 	ld	hl, #_move_camera_left
      0001A1 36 00            [12]  499 	ld	(hl), #0x00
                           0001A3   500 	C$StateGame.c$104$2_0$203	= .
                                    501 	.globl	C$StateGame.c$104$2_0$203
                                    502 ;StateGame.c:104: return;
      0001A3 C3r16r03         [16]  503 	jp	00141$
      0001A6                        504 00116$:
                           0001A6   505 	C$StateGame.c$105$1_0$196	= .
                                    506 	.globl	C$StateGame.c$105$1_0$196
                                    507 ;StateGame.c:105: }else if(move_camera_right){
      0001A6 FAr04r00         [16]  508 	ld	a, (#_move_camera_right)
      0001A9 B7               [ 4]  509 	or	a, a
      0001AA 28 2E            [12]  510 	jr	Z, 00120$
                           0001AC   511 	C$StateGame.c$98$1_2$196	= .
                                    512 	.globl	C$StateGame.c$98$1_2$196
                                    513 ;StateGame.c:98: if(scroll_target->x > move_camera_destx){
      0001AC F8 02            [12]  514 	ldhl	sp,#2
      0001AE 2A               [ 8]  515 	ld	a, (hl+)
      0001AF 5F               [ 4]  516 	ld	e, a
      0001B0 56               [ 8]  517 	ld	d, (hl)
      0001B1 1A               [ 8]  518 	ld	a, (de)
      0001B2 4F               [ 4]  519 	ld	c, a
      0001B3 13               [ 8]  520 	inc	de
      0001B4 1A               [ 8]  521 	ld	a, (de)
      0001B5 47               [ 4]  522 	ld	b, a
                           0001B6   523 	C$StateGame.c$106$2_0$206	= .
                                    524 	.globl	C$StateGame.c$106$2_0$206
                                    525 ;StateGame.c:106: if(scroll_target->x < move_camera_destx){
      0001B6 21r07r00         [12]  526 	ld	hl, #_move_camera_destx
      0001B9 79               [ 4]  527 	ld	a, c
      0001BA 96               [ 8]  528 	sub	a, (hl)
      0001BB 23               [ 8]  529 	inc	hl
      0001BC 78               [ 4]  530 	ld	a, b
      0001BD 9E               [ 8]  531 	sbc	a, (hl)
      0001BE 30 0D            [12]  532 	jr	NC, 00111$
                           0001C0   533 	C$StateGame.c$107$3_0$207	= .
                                    534 	.globl	C$StateGame.c$107$3_0$207
                                    535 ;StateGame.c:107: scroll_target->x+=V_CAMERA;
      0001C0 03               [ 8]  536 	inc	bc
      0001C1 03               [ 8]  537 	inc	bc
      0001C2 F8 02            [12]  538 	ldhl	sp,	#2
      0001C4 2A               [ 8]  539 	ld	a,	(hl+)
      0001C5 66               [ 8]  540 	ld	h, (hl)
      0001C6 6F               [ 4]  541 	ld	l, a
      0001C7 79               [ 4]  542 	ld	a, c
      0001C8 22               [ 8]  543 	ld	(hl+), a
      0001C9 70               [ 8]  544 	ld	(hl), b
      0001CA C3r16r03         [16]  545 	jp	00141$
      0001CD                        546 00111$:
                           0001CD   547 	C$StateGame.c$109$3_0$208	= .
                                    548 	.globl	C$StateGame.c$109$3_0$208
                                    549 ;StateGame.c:109: a_walk_counter_x = +4;
      0001CD 21r00r00         [12]  550 	ld	hl, #_a_walk_counter_x
      0001D0 36 04            [12]  551 	ld	(hl), #0x04
                           0001D2   552 	C$StateGame.c$110$3_0$208	= .
                                    553 	.globl	C$StateGame.c$110$3_0$208
                                    554 ;StateGame.c:110: move_camera_right = 0;
      0001D2 21r04r00         [12]  555 	ld	hl, #_move_camera_right
      0001D5 36 00            [12]  556 	ld	(hl), #0x00
                           0001D7   557 	C$StateGame.c$112$2_0$206	= .
                                    558 	.globl	C$StateGame.c$112$2_0$206
                                    559 ;StateGame.c:112: return;
      0001D7 C3r16r03         [16]  560 	jp	00141$
      0001DA                        561 00120$:
                           0001DA   562 	C$StateGame.c$114$1_2$196	= .
                                    563 	.globl	C$StateGame.c$114$1_2$196
                                    564 ;StateGame.c:114: INT16 orpheus_scroll_deltay = s_orpheus->y - scroll_target->y;
      0001DA FAr02r00         [16]  565 	ld	a, (#_s_orpheus)
      0001DD F8 04            [12]  566 	ldhl	sp,	#4
      0001DF 77               [ 8]  567 	ld	(hl), a
      0001E0 FAr03r00         [16]  568 	ld	a, (#_s_orpheus + 1)
      0001E3 F8 05            [12]  569 	ldhl	sp,	#5
      0001E5 32               [ 8]  570 	ld	(hl-), a
      0001E6 2A               [ 8]  571 	ld	a, (hl+)
      0001E7 5F               [ 4]  572 	ld	e, a
      0001E8 56               [ 8]  573 	ld	d, (hl)
      0001E9 21 0E 00         [12]  574 	ld	hl, #0x000e
      0001EC 19               [ 8]  575 	add	hl, de
      0001ED 2A               [ 8]  576 	ld	a, (hl+)
      0001EE 4F               [ 4]  577 	ld	c, a
      0001EF 46               [ 8]  578 	ld	b, (hl)
      0001F0 D1               [12]  579 	pop	de
      0001F1 D5               [16]  580 	push	de
      0001F2 1A               [ 8]  581 	ld	a, (de)
      0001F3 6F               [ 4]  582 	ld	l, a
                                    583 ;	spillPairReg hl
                                    584 ;	spillPairReg hl
      0001F4 13               [ 8]  585 	inc	de
      0001F5 1A               [ 8]  586 	ld	a, (de)
      0001F6 67               [ 4]  587 	ld	h, a
                                    588 ;	spillPairReg hl
                                    589 ;	spillPairReg hl
      0001F7 79               [ 4]  590 	ld	a, c
      0001F8 95               [ 4]  591 	sub	a, l
      0001F9 4F               [ 4]  592 	ld	c, a
      0001FA 78               [ 4]  593 	ld	a, b
      0001FB 9C               [ 4]  594 	sbc	a, h
      0001FC 47               [ 4]  595 	ld	b, a
                           0001FD   596 	C$StateGame.c$115$1_1$209	= .
                                    597 	.globl	C$StateGame.c$115$1_1$209
                                    598 ;StateGame.c:115: if(orpheus_scroll_deltay < -72){
      0001FD 79               [ 4]  599 	ld	a, c
      0001FE D6 B8            [ 8]  600 	sub	a, #0xb8
      000200 78               [ 4]  601 	ld	a, b
      000201 17               [ 4]  602 	rla
      000202 3F               [ 4]  603 	ccf
      000203 1F               [ 4]  604 	rra
      000204 DE 7F            [ 8]  605 	sbc	a, #0x7f
      000206 30 1F            [12]  606 	jr	NC, 00127$
                           000208   607 	C$StateGame.c$116$2_1$210	= .
                                    608 	.globl	C$StateGame.c$116$2_1$210
                                    609 ;StateGame.c:116: move_camera_up = 1;
      000208 21r01r00         [12]  610 	ld	hl, #_move_camera_up
      00020B 36 01            [12]  611 	ld	(hl), #0x01
                           00020D   612 	C$StateGame.c$117$2_1$210	= .
                                    613 	.globl	C$StateGame.c$117$2_1$210
                                    614 ;StateGame.c:117: move_camera_desty = scroll_target->y - 144u;
      00020D D1               [12]  615 	pop	de
      00020E D5               [16]  616 	push	de
      00020F 1A               [ 8]  617 	ld	a, (de)
      000210 4F               [ 4]  618 	ld	c, a
      000211 13               [ 8]  619 	inc	de
      000212 1A               [ 8]  620 	ld	a, (de)
      000213 47               [ 4]  621 	ld	b, a
      000214 79               [ 4]  622 	ld	a, c
      000215 C6 70            [ 8]  623 	add	a, #0x70
      000217 21r05r00         [12]  624 	ld	hl, #_move_camera_desty
      00021A 22               [ 8]  625 	ld	(hl+), a
      00021B 78               [ 4]  626 	ld	a, b
      00021C CE FF            [ 8]  627 	adc	a, #0xff
      00021E 77               [ 8]  628 	ld	(hl), a
                           00021F   629 	C$StateGame.c$118$2_1$210	= .
                                    630 	.globl	C$StateGame.c$118$2_1$210
                                    631 ;StateGame.c:118: a_walk_counter_y = -24;
      00021F 21r00r00         [12]  632 	ld	hl, #_a_walk_counter_y
      000222 36 E8            [12]  633 	ld	(hl), #0xe8
                           000224   634 	C$StateGame.c$119$2_1$210	= .
                                    635 	.globl	C$StateGame.c$119$2_1$210
                                    636 ;StateGame.c:119: return;
      000224 C3r16r03         [16]  637 	jp	00141$
      000227                        638 00127$:
                           000227   639 	C$StateGame.c$120$1_1$209	= .
                                    640 	.globl	C$StateGame.c$120$1_1$209
                                    641 ;StateGame.c:120: }else if(orpheus_scroll_deltay > 48){
      000227 58               [ 4]  642 	ld	e, b
      000228 16 00            [ 8]  643 	ld	d, #0x00
      00022A 3E 30            [ 8]  644 	ld	a, #0x30
      00022C B9               [ 4]  645 	cp	a, c
      00022D 3E 00            [ 8]  646 	ld	a, #0x00
      00022F 98               [ 4]  647 	sbc	a, b
      000230 CB 7B            [ 8]  648 	bit	7, e
      000232 28 07            [12]  649 	jr	Z, 00255$
      000234 CB 7A            [ 8]  650 	bit	7, d
      000236 20 08            [12]  651 	jr	NZ, 00256$
      000238 BF               [ 4]  652 	cp	a, a
      000239 18 05            [12]  653 	jr	00256$
      00023B                        654 00255$:
      00023B CB 7A            [ 8]  655 	bit	7, d
      00023D 28 01            [12]  656 	jr	Z, 00256$
      00023F 37               [ 4]  657 	scf
      000240                        658 00256$:
      000240 30 20            [12]  659 	jr	NC, 00128$
                           000242   660 	C$StateGame.c$121$2_1$211	= .
                                    661 	.globl	C$StateGame.c$121$2_1$211
                                    662 ;StateGame.c:121: move_camera_down = 1;
      000242 21r02r00         [12]  663 	ld	hl, #_move_camera_down
      000245 36 01            [12]  664 	ld	(hl), #0x01
                           000247   665 	C$StateGame.c$122$2_1$211	= .
                                    666 	.globl	C$StateGame.c$122$2_1$211
                                    667 ;StateGame.c:122: move_camera_desty = scroll_target->y + 144u;
      000247 D1               [12]  668 	pop	de
      000248 D5               [16]  669 	push	de
      000249 1A               [ 8]  670 	ld	a, (de)
      00024A 4F               [ 4]  671 	ld	c, a
      00024B 13               [ 8]  672 	inc	de
      00024C 1A               [ 8]  673 	ld	a, (de)
      00024D 47               [ 4]  674 	ld	b, a
      00024E 21 90 00         [12]  675 	ld	hl, #0x0090
      000251 09               [ 8]  676 	add	hl, bc
      000252 5D               [ 4]  677 	ld	e, l
      000253 54               [ 4]  678 	ld	d, h
      000254 21r05r00         [12]  679 	ld	hl, #_move_camera_desty
      000257 7B               [ 4]  680 	ld	a, e
      000258 22               [ 8]  681 	ld	(hl+), a
      000259 72               [ 8]  682 	ld	(hl), d
                           00025A   683 	C$StateGame.c$123$2_1$211	= .
                                    684 	.globl	C$StateGame.c$123$2_1$211
                                    685 ;StateGame.c:123: a_walk_counter_y = +24;
      00025A 21r00r00         [12]  686 	ld	hl, #_a_walk_counter_y
      00025D 36 18            [12]  687 	ld	(hl), #0x18
                           00025F   688 	C$StateGame.c$124$2_1$211	= .
                                    689 	.globl	C$StateGame.c$124$2_1$211
                                    690 ;StateGame.c:124: return;
      00025F C3r16r03         [16]  691 	jp	00141$
      000262                        692 00128$:
                           000262   693 	C$StateGame.c$126$1_2$212	= .
                                    694 	.globl	C$StateGame.c$126$1_2$212
                                    695 ;StateGame.c:126: INT16 orpheus_scroll_deltax = s_orpheus->x - scroll_target->x;
      000262 F8 04            [12]  696 	ldhl	sp,#4
      000264 2A               [ 8]  697 	ld	a, (hl+)
      000265 5F               [ 4]  698 	ld	e, a
      000266 56               [ 8]  699 	ld	d, (hl)
      000267 21 0C 00         [12]  700 	ld	hl, #0x000c
      00026A 19               [ 8]  701 	add	hl, de
      00026B 2A               [ 8]  702 	ld	a, (hl+)
      00026C 4F               [ 4]  703 	ld	c, a
      00026D 46               [ 8]  704 	ld	b, (hl)
      00026E F8 02            [12]  705 	ldhl	sp,#2
      000270 2A               [ 8]  706 	ld	a, (hl+)
      000271 5F               [ 4]  707 	ld	e, a
      000272 56               [ 8]  708 	ld	d, (hl)
      000273 1A               [ 8]  709 	ld	a, (de)
      000274 6F               [ 4]  710 	ld	l, a
                                    711 ;	spillPairReg hl
                                    712 ;	spillPairReg hl
      000275 13               [ 8]  713 	inc	de
      000276 1A               [ 8]  714 	ld	a, (de)
      000277 67               [ 4]  715 	ld	h, a
                                    716 ;	spillPairReg hl
                                    717 ;	spillPairReg hl
      000278 79               [ 4]  718 	ld	a, c
      000279 95               [ 4]  719 	sub	a, l
      00027A 4F               [ 4]  720 	ld	c, a
      00027B 78               [ 4]  721 	ld	a, b
      00027C 9C               [ 4]  722 	sbc	a, h
      00027D 47               [ 4]  723 	ld	b, a
                           00027E   724 	C$StateGame.c$127$1_2$212	= .
                                    725 	.globl	C$StateGame.c$127$1_2$212
                                    726 ;StateGame.c:127: if(orpheus_scroll_deltax < - 80){
      00027E 79               [ 4]  727 	ld	a, c
      00027F D6 B0            [ 8]  728 	sub	a, #0xb0
      000281 78               [ 4]  729 	ld	a, b
      000282 17               [ 4]  730 	rla
      000283 3F               [ 4]  731 	ccf
      000284 1F               [ 4]  732 	rra
      000285 DE 7F            [ 8]  733 	sbc	a, #0x7f
      000287 30 21            [12]  734 	jr	NC, 00132$
                           000289   735 	C$StateGame.c$128$2_2$213	= .
                                    736 	.globl	C$StateGame.c$128$2_2$213
                                    737 ;StateGame.c:128: move_camera_left= 1;
      000289 21r03r00         [12]  738 	ld	hl, #_move_camera_left
      00028C 36 01            [12]  739 	ld	(hl), #0x01
                           00028E   740 	C$StateGame.c$129$2_2$213	= .
                                    741 	.globl	C$StateGame.c$129$2_2$213
                                    742 ;StateGame.c:129: move_camera_destx = scroll_target->x - 160u;
      00028E F8 02            [12]  743 	ldhl	sp,#2
      000290 2A               [ 8]  744 	ld	a, (hl+)
      000291 5F               [ 4]  745 	ld	e, a
      000292 56               [ 8]  746 	ld	d, (hl)
      000293 1A               [ 8]  747 	ld	a, (de)
      000294 4F               [ 4]  748 	ld	c, a
      000295 13               [ 8]  749 	inc	de
      000296 1A               [ 8]  750 	ld	a, (de)
      000297 47               [ 4]  751 	ld	b, a
      000298 79               [ 4]  752 	ld	a, c
      000299 C6 60            [ 8]  753 	add	a, #0x60
      00029B 21r07r00         [12]  754 	ld	hl, #_move_camera_destx
      00029E 22               [ 8]  755 	ld	(hl+), a
      00029F 78               [ 4]  756 	ld	a, b
      0002A0 CE FF            [ 8]  757 	adc	a, #0xff
      0002A2 77               [ 8]  758 	ld	(hl), a
                           0002A3   759 	C$StateGame.c$130$2_2$213	= .
                                    760 	.globl	C$StateGame.c$130$2_2$213
                                    761 ;StateGame.c:130: a_walk_counter_x = -8;
      0002A3 21r00r00         [12]  762 	ld	hl, #_a_walk_counter_x
      0002A6 36 F8            [12]  763 	ld	(hl), #0xf8
                           0002A8   764 	C$StateGame.c$131$2_2$213	= .
                                    765 	.globl	C$StateGame.c$131$2_2$213
                                    766 ;StateGame.c:131: return;
      0002A8 18 6C            [12]  767 	jr	00141$
      0002AA                        768 00132$:
                           0002AA   769 	C$StateGame.c$132$1_2$212	= .
                                    770 	.globl	C$StateGame.c$132$1_2$212
                                    771 ;StateGame.c:132: }else if(orpheus_scroll_deltax > 72){
      0002AA 58               [ 4]  772 	ld	e, b
      0002AB 16 00            [ 8]  773 	ld	d, #0x00
      0002AD 3E 48            [ 8]  774 	ld	a, #0x48
      0002AF B9               [ 4]  775 	cp	a, c
      0002B0 3E 00            [ 8]  776 	ld	a, #0x00
      0002B2 98               [ 4]  777 	sbc	a, b
      0002B3 CB 7B            [ 8]  778 	bit	7, e
      0002B5 28 07            [12]  779 	jr	Z, 00257$
      0002B7 CB 7A            [ 8]  780 	bit	7, d
      0002B9 20 08            [12]  781 	jr	NZ, 00258$
      0002BB BF               [ 4]  782 	cp	a, a
      0002BC 18 05            [12]  783 	jr	00258$
      0002BE                        784 00257$:
      0002BE CB 7A            [ 8]  785 	bit	7, d
      0002C0 28 01            [12]  786 	jr	Z, 00258$
      0002C2 37               [ 4]  787 	scf
      0002C3                        788 00258$:
      0002C3 30 22            [12]  789 	jr	NC, 00133$
                           0002C5   790 	C$StateGame.c$133$2_2$214	= .
                                    791 	.globl	C$StateGame.c$133$2_2$214
                                    792 ;StateGame.c:133: move_camera_right = 1;
      0002C5 21r04r00         [12]  793 	ld	hl, #_move_camera_right
      0002C8 36 01            [12]  794 	ld	(hl), #0x01
                           0002CA   795 	C$StateGame.c$134$2_2$214	= .
                                    796 	.globl	C$StateGame.c$134$2_2$214
                                    797 ;StateGame.c:134: move_camera_destx = scroll_target->x + 160u;
      0002CA F8 02            [12]  798 	ldhl	sp,#2
      0002CC 2A               [ 8]  799 	ld	a, (hl+)
      0002CD 5F               [ 4]  800 	ld	e, a
      0002CE 56               [ 8]  801 	ld	d, (hl)
      0002CF 1A               [ 8]  802 	ld	a, (de)
      0002D0 4F               [ 4]  803 	ld	c, a
      0002D1 13               [ 8]  804 	inc	de
      0002D2 1A               [ 8]  805 	ld	a, (de)
      0002D3 47               [ 4]  806 	ld	b, a
      0002D4 21 A0 00         [12]  807 	ld	hl, #0x00a0
      0002D7 09               [ 8]  808 	add	hl, bc
      0002D8 5D               [ 4]  809 	ld	e, l
      0002D9 54               [ 4]  810 	ld	d, h
      0002DA 21r07r00         [12]  811 	ld	hl, #_move_camera_destx
      0002DD 7B               [ 4]  812 	ld	a, e
      0002DE 22               [ 8]  813 	ld	(hl+), a
      0002DF 72               [ 8]  814 	ld	(hl), d
                           0002E0   815 	C$StateGame.c$135$2_2$214	= .
                                    816 	.globl	C$StateGame.c$135$2_2$214
                                    817 ;StateGame.c:135: a_walk_counter_x = +8;
      0002E0 21r00r00         [12]  818 	ld	hl, #_a_walk_counter_x
      0002E3 36 08            [12]  819 	ld	(hl), #0x08
                           0002E5   820 	C$StateGame.c$136$2_2$214	= .
                                    821 	.globl	C$StateGame.c$136$2_2$214
                                    822 ;StateGame.c:136: return;
      0002E5 18 2F            [12]  823 	jr	00141$
      0002E7                        824 00133$:
                           0002E7   825 	C$StateGame.c$139$1_2$212	= .
                                    826 	.globl	C$StateGame.c$139$1_2$212
                                    827 ;StateGame.c:139: if(KEY_TICKED(J_SELECT)){
      0002E7 FAr00r00         [16]  828 	ld	a, (#_keys)
      0002EA CB 77            [ 8]  829 	bit	6, a
      0002EC 28 1A            [12]  830 	jr	Z, 00137$
      0002EE FAr00r00         [16]  831 	ld	a, (#_previous_keys)
      0002F1 CB 77            [ 8]  832 	bit	6, a
      0002F3 20 13            [12]  833 	jr	NZ, 00137$
                           0002F5   834 	C$StateGame.c$140$2_2$215	= .
                                    835 	.globl	C$StateGame.c$140$2_2$215
                                    836 ;StateGame.c:140: song_selection++;
      0002F5 21r04r00         [12]  837 	ld	hl, #_song_selection
      0002F8 34               [12]  838 	inc	(hl)
                           0002F9   839 	C$StateGame.c$141$2_2$215	= .
                                    840 	.globl	C$StateGame.c$141$2_2$215
                                    841 ;StateGame.c:141: if(song_selection == 3){
      0002F9 7E               [ 8]  842 	ld	a, (hl)
      0002FA D6 03            [ 8]  843 	sub	a, #0x03
      0002FC 20 05            [12]  844 	jr	NZ, 00135$
                           0002FE   845 	C$StateGame.c$142$3_2$216	= .
                                    846 	.globl	C$StateGame.c$142$3_2$216
                                    847 ;StateGame.c:142: song_selection = ATTRACT;
      0002FE 21r04r00         [12]  848 	ld	hl, #_song_selection
      000301 36 00            [12]  849 	ld	(hl), #0x00
      000303                        850 00135$:
                           000303   851 	C$StateGame.c$144$2_2$215	= .
                                    852 	.globl	C$StateGame.c$144$2_2$215
                                    853 ;StateGame.c:144: update_hud = 1;
      000303 21r00r00         [12]  854 	ld	hl, #_update_hud
      000306 36 01            [12]  855 	ld	(hl), #0x01
      000308                        856 00137$:
                           000308   857 	C$StateGame.c$146$1_2$212	= .
                                    858 	.globl	C$StateGame.c$146$1_2$212
                                    859 ;StateGame.c:146: if(update_hud != 0){
      000308 FAr00r00         [16]  860 	ld	a, (#_update_hud)
      00030B B7               [ 4]  861 	or	a, a
      00030C 28 08            [12]  862 	jr	Z, 00141$
                           00030E   863 	C$StateGame.c$147$2_2$217	= .
                                    864 	.globl	C$StateGame.c$147$2_2$217
                                    865 ;StateGame.c:147: UpdateHUD();
      00030E 1Er00            [ 8]  866 	ld	e, #b_UpdateHUD
      000310 21r19r03         [12]  867 	ld	hl, #_UpdateHUD
      000313 CDr00r00         [24]  868 	call	___sdcc_bcall_ehl
      000316                        869 00141$:
                           000316   870 	C$StateGame.c$149$1_2$196	= .
                                    871 	.globl	C$StateGame.c$149$1_2$196
                                    872 ;StateGame.c:149: }
      000316 E8 06            [16]  873 	add	sp, #6
                           000318   874 	C$StateGame.c$149$1_2$196	= .
                                    875 	.globl	C$StateGame.c$149$1_2$196
                           000318   876 	XG$Update_StateGame$0$0	= .
                                    877 	.globl	XG$Update_StateGame$0$0
      000318 C9               [16]  878 	ret
                           000319   879 	G$UpdateHUD$0$0	= .
                                    880 	.globl	G$UpdateHUD$0$0
                           000319   881 	C$StateGame.c$151$1_2$218	= .
                                    882 	.globl	C$StateGame.c$151$1_2$218
                                    883 ;StateGame.c:151: void UpdateHUD() BANKED{
                                    884 ;	---------------------------------
                                    885 ; Function UpdateHUD
                                    886 ; ---------------------------------
                           0000FF   887 	b_UpdateHUD	= 255
      000319                        888 _UpdateHUD::
      000319 3B               [ 8]  889 	dec	sp
      00031A 3B               [ 8]  890 	dec	sp
                           00031B   891 	C$StateGame.c$152$1_0$218	= .
                                    892 	.globl	C$StateGame.c$152$1_0$218
                                    893 ;StateGame.c:152: update_hud = 0;
      00031B 21r00r00         [12]  894 	ld	hl, #_update_hud
      00031E 36 00            [12]  895 	ld	(hl), #0x00
                           000320   896 	C$StateGame.c$155$1_2$218	= .
                                    897 	.globl	C$StateGame.c$155$1_2$218
                                    898 ;StateGame.c:155: for(idx = 1; idx <= orpheus_hp_max; idx++){
      000320 0E 01            [ 8]  899 	ld	c, #0x01
      000322                        900 00130$:
      000322 59               [ 4]  901 	ld	e, c
      000323 FAr00r00         [16]  902 	ld	a, (#_orpheus_hp_max)
      000326 57               [ 4]  903 	ld	d,a
      000327 91               [ 4]  904 	sub	a, c
      000328 CB 7B            [ 8]  905 	bit	7, e
      00032A 28 07            [12]  906 	jr	Z, 00226$
      00032C CB 7A            [ 8]  907 	bit	7, d
      00032E 20 08            [12]  908 	jr	NZ, 00227$
      000330 BF               [ 4]  909 	cp	a, a
      000331 18 05            [12]  910 	jr	00227$
      000333                        911 00226$:
      000333 CB 7A            [ 8]  912 	bit	7, d
      000335 28 01            [12]  913 	jr	Z, 00227$
      000337 37               [ 4]  914 	scf
      000338                        915 00227$:
      000338 DArC3r03         [16]  916 	jp	C, 00104$
                           00033B   917 	C$StateGame.c$156$3_1$221	= .
                                    918 	.globl	C$StateGame.c$156$3_1$221
                                    919 ;StateGame.c:156: if(idx <= orpheus_hp){
      00033B 59               [ 4]  920 	ld	e, c
      00033C FAr00r00         [16]  921 	ld	a, (#_orpheus_hp)
      00033F 57               [ 4]  922 	ld	d,a
      000340 91               [ 4]  923 	sub	a, c
      000341 CB 7B            [ 8]  924 	bit	7, e
      000343 28 07            [12]  925 	jr	Z, 00228$
      000345 CB 7A            [ 8]  926 	bit	7, d
      000347 20 08            [12]  927 	jr	NZ, 00229$
      000349 BF               [ 4]  928 	cp	a, a
      00034A 18 05            [12]  929 	jr	00229$
      00034C                        930 00228$:
      00034C CB 7A            [ 8]  931 	bit	7, d
      00034E 28 01            [12]  932 	jr	Z, 00229$
      000350 37               [ 4]  933 	scf
      000351                        934 00229$:
      000351 38 37            [12]  935 	jr	C, 00102$
                           000353   936 	C$StateGame.c$157$4_1$222	= .
                                    937 	.globl	C$StateGame.c$157$4_1$222
                                    938 ;StateGame.c:157: UPDATE_HUD_TILE(idx,0,1);
      000353 C5               [16]  939 	push	bc
      000354 11 00 00         [12]  940 	ld	de, #0x0000
      000357 D5               [16]  941 	push	de
      000358 3E 01            [ 8]  942 	ld	a, #0x01
      00035A F5               [16]  943 	push	af
      00035B 33               [ 8]  944 	inc	sp
      00035C 21r00r00         [12]  945 	ld	hl, #_hud_map_offset
      00035F 2A               [ 8]  946 	ld	a, (hl+)
      000360 5F               [ 4]  947 	ld	e, a
      000361 56               [ 8]  948 	ld	d, (hl)
      000362 D5               [16]  949 	push	de
      000363 AF               [ 4]  950 	xor	a, a
      000364 F5               [16]  951 	push	af
      000365 33               [ 8]  952 	inc	sp
      000366 59               [ 4]  953 	ld	e, c
      000367 3E 01            [ 8]  954 	ld	a, #0x01
      000369 CDr00r00         [24]  955 	call	_UpdateMapTile
      00036C C1               [12]  956 	pop	bc
                           00036D   957 	C$StateGame.c$158$4_1$222	= .
                                    958 	.globl	C$StateGame.c$158$4_1$222
                                    959 ;StateGame.c:158: UPDATE_HUD_TILE(idx,1,2);
      00036D C5               [16]  960 	push	bc
      00036E 11 00 00         [12]  961 	ld	de, #0x0000
      000371 D5               [16]  962 	push	de
      000372 3E 02            [ 8]  963 	ld	a, #0x02
      000374 F5               [16]  964 	push	af
      000375 33               [ 8]  965 	inc	sp
      000376 21r00r00         [12]  966 	ld	hl, #_hud_map_offset
      000379 2A               [ 8]  967 	ld	a, (hl+)
      00037A 5F               [ 4]  968 	ld	e, a
      00037B 56               [ 8]  969 	ld	d, (hl)
      00037C D5               [16]  970 	push	de
      00037D 3E 01            [ 8]  971 	ld	a, #0x01
      00037F F5               [16]  972 	push	af
      000380 33               [ 8]  973 	inc	sp
      000381 59               [ 4]  974 	ld	e, c
      000382 3E 01            [ 8]  975 	ld	a, #0x01
      000384 CDr00r00         [24]  976 	call	_UpdateMapTile
      000387 C1               [12]  977 	pop	bc
      000388 18 35            [12]  978 	jr	00131$
      00038A                        979 00102$:
                           00038A   980 	C$StateGame.c$160$4_1$223	= .
                                    981 	.globl	C$StateGame.c$160$4_1$223
                                    982 ;StateGame.c:160: UPDATE_HUD_TILE(idx,0,3);
      00038A C5               [16]  983 	push	bc
      00038B 11 00 00         [12]  984 	ld	de, #0x0000
      00038E D5               [16]  985 	push	de
      00038F 3E 03            [ 8]  986 	ld	a, #0x03
      000391 F5               [16]  987 	push	af
      000392 33               [ 8]  988 	inc	sp
      000393 21r00r00         [12]  989 	ld	hl, #_hud_map_offset
      000396 2A               [ 8]  990 	ld	a, (hl+)
      000397 5F               [ 4]  991 	ld	e, a
      000398 56               [ 8]  992 	ld	d, (hl)
      000399 D5               [16]  993 	push	de
      00039A AF               [ 4]  994 	xor	a, a
      00039B F5               [16]  995 	push	af
      00039C 33               [ 8]  996 	inc	sp
      00039D 59               [ 4]  997 	ld	e, c
      00039E 3E 01            [ 8]  998 	ld	a, #0x01
      0003A0 CDr00r00         [24]  999 	call	_UpdateMapTile
      0003A3 C1               [12] 1000 	pop	bc
                           0003A4  1001 	C$StateGame.c$161$4_1$223	= .
                                   1002 	.globl	C$StateGame.c$161$4_1$223
                                   1003 ;StateGame.c:161: UPDATE_HUD_TILE(idx,1,4);
      0003A4 C5               [16] 1004 	push	bc
      0003A5 11 00 00         [12] 1005 	ld	de, #0x0000
      0003A8 D5               [16] 1006 	push	de
      0003A9 3E 04            [ 8] 1007 	ld	a, #0x04
      0003AB F5               [16] 1008 	push	af
      0003AC 33               [ 8] 1009 	inc	sp
      0003AD 21r00r00         [12] 1010 	ld	hl, #_hud_map_offset
      0003B0 2A               [ 8] 1011 	ld	a, (hl+)
      0003B1 5F               [ 4] 1012 	ld	e, a
      0003B2 56               [ 8] 1013 	ld	d, (hl)
      0003B3 D5               [16] 1014 	push	de
      0003B4 3E 01            [ 8] 1015 	ld	a, #0x01
      0003B6 F5               [16] 1016 	push	af
      0003B7 33               [ 8] 1017 	inc	sp
      0003B8 59               [ 4] 1018 	ld	e, c
      0003B9 3E 01            [ 8] 1019 	ld	a, #0x01
      0003BB CDr00r00         [24] 1020 	call	_UpdateMapTile
      0003BE C1               [12] 1021 	pop	bc
      0003BF                       1022 00131$:
                           0003BF  1023 	C$StateGame.c$155$2_1$220	= .
                                   1024 	.globl	C$StateGame.c$155$2_1$220
                                   1025 ;StateGame.c:155: for(idx = 1; idx <= orpheus_hp_max; idx++){
      0003BF 0C               [ 4] 1026 	inc	c
      0003C0 C3r22r03         [16] 1027 	jp	00130$
      0003C3                       1028 00104$:
                           0003C3  1029 	C$StateGame.c$165$1_1$219	= .
                                   1030 	.globl	C$StateGame.c$165$1_1$219
                                   1031 ;StateGame.c:165: switch(song_selection){
      0003C3 FAr04r00         [16] 1032 	ld	a, (#_song_selection)
      0003C6 B7               [ 4] 1033 	or	a, a
      0003C7 28 12            [12] 1034 	jr	Z, 00105$
      0003C9 FAr04r00         [16] 1035 	ld	a, (#_song_selection)
      0003CC 3D               [ 4] 1036 	dec	a
      0003CD CAr10r05         [16] 1037 	jp	Z,00106$
      0003D0 FAr04r00         [16] 1038 	ld	a, (#_song_selection)
      0003D3 D6 02            [ 8] 1039 	sub	a, #0x02
      0003D5 CAr45r06         [16] 1040 	jp	Z,00107$
      0003D8 C3r77r07         [16] 1041 	jp	00108$
                           0003DB  1042 	C$StateGame.c$166$2_1$224	= .
                                   1043 	.globl	C$StateGame.c$166$2_1$224
                                   1044 ;StateGame.c:166: case ATTRACT:
      0003DB                       1045 00105$:
                           0003DB  1046 	C$StateGame.c$167$2_1$224	= .
                                   1047 	.globl	C$StateGame.c$167$2_1$224
                                   1048 ;StateGame.c:167: UPDATE_HUD_TILE(7,0,5);
      0003DB 11 00 00         [12] 1049 	ld	de, #0x0000
      0003DE D5               [16] 1050 	push	de
      0003DF 3E 05            [ 8] 1051 	ld	a, #0x05
      0003E1 F5               [16] 1052 	push	af
      0003E2 33               [ 8] 1053 	inc	sp
      0003E3 21r00r00         [12] 1054 	ld	hl, #_hud_map_offset
      0003E6 2A               [ 8] 1055 	ld	a, (hl+)
      0003E7 5F               [ 4] 1056 	ld	e, a
      0003E8 56               [ 8] 1057 	ld	d, (hl)
      0003E9 D5               [16] 1058 	push	de
      0003EA AF               [ 4] 1059 	xor	a, a
      0003EB F5               [16] 1060 	push	af
      0003EC 33               [ 8] 1061 	inc	sp
      0003ED 1E 07            [ 8] 1062 	ld	e, #0x07
      0003EF 3E 01            [ 8] 1063 	ld	a, #0x01
      0003F1 CDr00r00         [24] 1064 	call	_UpdateMapTile
                           0003F4  1065 	C$StateGame.c$168$2_1$224	= .
                                   1066 	.globl	C$StateGame.c$168$2_1$224
                                   1067 ;StateGame.c:168: UPDATE_HUD_TILE(7,1,6);
      0003F4 11 00 00         [12] 1068 	ld	de, #0x0000
      0003F7 D5               [16] 1069 	push	de
      0003F8 3E 06            [ 8] 1070 	ld	a, #0x06
      0003FA F5               [16] 1071 	push	af
      0003FB 33               [ 8] 1072 	inc	sp
      0003FC 21r00r00         [12] 1073 	ld	hl, #_hud_map_offset
      0003FF 2A               [ 8] 1074 	ld	a, (hl+)
      000400 5F               [ 4] 1075 	ld	e, a
      000401 56               [ 8] 1076 	ld	d, (hl)
      000402 D5               [16] 1077 	push	de
      000403 3E 01            [ 8] 1078 	ld	a, #0x01
      000405 F5               [16] 1079 	push	af
      000406 33               [ 8] 1080 	inc	sp
      000407 1E 07            [ 8] 1081 	ld	e, #0x07
      000409 3E 01            [ 8] 1082 	ld	a, #0x01
      00040B CDr00r00         [24] 1083 	call	_UpdateMapTile
                           00040E  1084 	C$StateGame.c$169$2_1$224	= .
                                   1085 	.globl	C$StateGame.c$169$2_1$224
                                   1086 ;StateGame.c:169: UPDATE_HUD_TILE(8,0,7);
      00040E 11 00 00         [12] 1087 	ld	de, #0x0000
      000411 D5               [16] 1088 	push	de
      000412 3E 07            [ 8] 1089 	ld	a, #0x07
      000414 F5               [16] 1090 	push	af
      000415 33               [ 8] 1091 	inc	sp
      000416 21r00r00         [12] 1092 	ld	hl, #_hud_map_offset
      000419 2A               [ 8] 1093 	ld	a, (hl+)
      00041A 5F               [ 4] 1094 	ld	e, a
      00041B 56               [ 8] 1095 	ld	d, (hl)
      00041C D5               [16] 1096 	push	de
      00041D AF               [ 4] 1097 	xor	a, a
      00041E F5               [16] 1098 	push	af
      00041F 33               [ 8] 1099 	inc	sp
      000420 1E 08            [ 8] 1100 	ld	e, #0x08
      000422 3E 01            [ 8] 1101 	ld	a, #0x01
      000424 CDr00r00         [24] 1102 	call	_UpdateMapTile
                           000427  1103 	C$StateGame.c$170$2_1$224	= .
                                   1104 	.globl	C$StateGame.c$170$2_1$224
                                   1105 ;StateGame.c:170: UPDATE_HUD_TILE(8,1,8);
      000427 11 00 00         [12] 1106 	ld	de, #0x0000
      00042A D5               [16] 1107 	push	de
      00042B 3E 08            [ 8] 1108 	ld	a, #0x08
      00042D F5               [16] 1109 	push	af
      00042E 33               [ 8] 1110 	inc	sp
      00042F 21r00r00         [12] 1111 	ld	hl, #_hud_map_offset
      000432 2A               [ 8] 1112 	ld	a, (hl+)
      000433 5F               [ 4] 1113 	ld	e, a
      000434 56               [ 8] 1114 	ld	d, (hl)
      000435 D5               [16] 1115 	push	de
      000436 3E 01            [ 8] 1116 	ld	a, #0x01
      000438 F5               [16] 1117 	push	af
      000439 33               [ 8] 1118 	inc	sp
      00043A 1E 08            [ 8] 1119 	ld	e, #0x08
      00043C 3E 01            [ 8] 1120 	ld	a, #0x01
      00043E CDr00r00         [24] 1121 	call	_UpdateMapTile
                           000441  1122 	C$StateGame.c$172$2_1$224	= .
                                   1123 	.globl	C$StateGame.c$172$2_1$224
                                   1124 ;StateGame.c:172: UPDATE_HUD_TILE(9,0,17);
      000441 11 00 00         [12] 1125 	ld	de, #0x0000
      000444 D5               [16] 1126 	push	de
      000445 3E 11            [ 8] 1127 	ld	a, #0x11
      000447 F5               [16] 1128 	push	af
      000448 33               [ 8] 1129 	inc	sp
      000449 21r00r00         [12] 1130 	ld	hl, #_hud_map_offset
      00044C 2A               [ 8] 1131 	ld	a, (hl+)
      00044D 5F               [ 4] 1132 	ld	e, a
      00044E 56               [ 8] 1133 	ld	d, (hl)
      00044F D5               [16] 1134 	push	de
      000450 AF               [ 4] 1135 	xor	a, a
      000451 F5               [16] 1136 	push	af
      000452 33               [ 8] 1137 	inc	sp
      000453 1E 09            [ 8] 1138 	ld	e, #0x09
      000455 3E 01            [ 8] 1139 	ld	a, #0x01
      000457 CDr00r00         [24] 1140 	call	_UpdateMapTile
                           00045A  1141 	C$StateGame.c$173$2_1$224	= .
                                   1142 	.globl	C$StateGame.c$173$2_1$224
                                   1143 ;StateGame.c:173: UPDATE_HUD_TILE(9,1,18);
      00045A 11 00 00         [12] 1144 	ld	de, #0x0000
      00045D D5               [16] 1145 	push	de
      00045E 3E 12            [ 8] 1146 	ld	a, #0x12
      000460 F5               [16] 1147 	push	af
      000461 33               [ 8] 1148 	inc	sp
      000462 21r00r00         [12] 1149 	ld	hl, #_hud_map_offset
      000465 2A               [ 8] 1150 	ld	a, (hl+)
      000466 5F               [ 4] 1151 	ld	e, a
      000467 56               [ 8] 1152 	ld	d, (hl)
      000468 D5               [16] 1153 	push	de
      000469 3E 01            [ 8] 1154 	ld	a, #0x01
      00046B F5               [16] 1155 	push	af
      00046C 33               [ 8] 1156 	inc	sp
      00046D 1E 09            [ 8] 1157 	ld	e, #0x09
      00046F 3E 01            [ 8] 1158 	ld	a, #0x01
      000471 CDr00r00         [24] 1159 	call	_UpdateMapTile
                           000474  1160 	C$StateGame.c$174$2_1$224	= .
                                   1161 	.globl	C$StateGame.c$174$2_1$224
                                   1162 ;StateGame.c:174: UPDATE_HUD_TILE(10,0,19);
      000474 11 00 00         [12] 1163 	ld	de, #0x0000
      000477 D5               [16] 1164 	push	de
      000478 3E 13            [ 8] 1165 	ld	a, #0x13
      00047A F5               [16] 1166 	push	af
      00047B 33               [ 8] 1167 	inc	sp
      00047C 21r00r00         [12] 1168 	ld	hl, #_hud_map_offset
      00047F 2A               [ 8] 1169 	ld	a, (hl+)
      000480 5F               [ 4] 1170 	ld	e, a
      000481 56               [ 8] 1171 	ld	d, (hl)
      000482 D5               [16] 1172 	push	de
      000483 AF               [ 4] 1173 	xor	a, a
      000484 F5               [16] 1174 	push	af
      000485 33               [ 8] 1175 	inc	sp
      000486 1E 0A            [ 8] 1176 	ld	e, #0x0a
      000488 3E 01            [ 8] 1177 	ld	a, #0x01
      00048A CDr00r00         [24] 1178 	call	_UpdateMapTile
                           00048D  1179 	C$StateGame.c$175$2_1$224	= .
                                   1180 	.globl	C$StateGame.c$175$2_1$224
                                   1181 ;StateGame.c:175: UPDATE_HUD_TILE(10,1,20);
      00048D 11 00 00         [12] 1182 	ld	de, #0x0000
      000490 D5               [16] 1183 	push	de
      000491 3E 14            [ 8] 1184 	ld	a, #0x14
      000493 F5               [16] 1185 	push	af
      000494 33               [ 8] 1186 	inc	sp
      000495 21r00r00         [12] 1187 	ld	hl, #_hud_map_offset
      000498 2A               [ 8] 1188 	ld	a, (hl+)
      000499 5F               [ 4] 1189 	ld	e, a
      00049A 56               [ 8] 1190 	ld	d, (hl)
      00049B D5               [16] 1191 	push	de
      00049C 3E 01            [ 8] 1192 	ld	a, #0x01
      00049E F5               [16] 1193 	push	af
      00049F 33               [ 8] 1194 	inc	sp
      0004A0 1E 0A            [ 8] 1195 	ld	e, #0x0a
      0004A2 3E 01            [ 8] 1196 	ld	a, #0x01
      0004A4 CDr00r00         [24] 1197 	call	_UpdateMapTile
                           0004A7  1198 	C$StateGame.c$177$2_1$224	= .
                                   1199 	.globl	C$StateGame.c$177$2_1$224
                                   1200 ;StateGame.c:177: UPDATE_HUD_TILE(11,0,21);
      0004A7 11 00 00         [12] 1201 	ld	de, #0x0000
      0004AA D5               [16] 1202 	push	de
      0004AB 3E 15            [ 8] 1203 	ld	a, #0x15
      0004AD F5               [16] 1204 	push	af
      0004AE 33               [ 8] 1205 	inc	sp
      0004AF 21r00r00         [12] 1206 	ld	hl, #_hud_map_offset
      0004B2 2A               [ 8] 1207 	ld	a, (hl+)
      0004B3 5F               [ 4] 1208 	ld	e, a
      0004B4 56               [ 8] 1209 	ld	d, (hl)
      0004B5 D5               [16] 1210 	push	de
      0004B6 AF               [ 4] 1211 	xor	a, a
      0004B7 F5               [16] 1212 	push	af
      0004B8 33               [ 8] 1213 	inc	sp
      0004B9 1E 0B            [ 8] 1214 	ld	e, #0x0b
      0004BB 3E 01            [ 8] 1215 	ld	a, #0x01
      0004BD CDr00r00         [24] 1216 	call	_UpdateMapTile
                           0004C0  1217 	C$StateGame.c$178$2_1$224	= .
                                   1218 	.globl	C$StateGame.c$178$2_1$224
                                   1219 ;StateGame.c:178: UPDATE_HUD_TILE(11,1,22);
      0004C0 11 00 00         [12] 1220 	ld	de, #0x0000
      0004C3 D5               [16] 1221 	push	de
      0004C4 3E 16            [ 8] 1222 	ld	a, #0x16
      0004C6 F5               [16] 1223 	push	af
      0004C7 33               [ 8] 1224 	inc	sp
      0004C8 21r00r00         [12] 1225 	ld	hl, #_hud_map_offset
      0004CB 2A               [ 8] 1226 	ld	a, (hl+)
      0004CC 5F               [ 4] 1227 	ld	e, a
      0004CD 56               [ 8] 1228 	ld	d, (hl)
      0004CE D5               [16] 1229 	push	de
      0004CF 3E 01            [ 8] 1230 	ld	a, #0x01
      0004D1 F5               [16] 1231 	push	af
      0004D2 33               [ 8] 1232 	inc	sp
      0004D3 1E 0B            [ 8] 1233 	ld	e, #0x0b
      0004D5 3E 01            [ 8] 1234 	ld	a, #0x01
      0004D7 CDr00r00         [24] 1235 	call	_UpdateMapTile
                           0004DA  1236 	C$StateGame.c$179$2_1$224	= .
                                   1237 	.globl	C$StateGame.c$179$2_1$224
                                   1238 ;StateGame.c:179: UPDATE_HUD_TILE(12,0,23);
      0004DA 11 00 00         [12] 1239 	ld	de, #0x0000
      0004DD D5               [16] 1240 	push	de
      0004DE 3E 17            [ 8] 1241 	ld	a, #0x17
      0004E0 F5               [16] 1242 	push	af
      0004E1 33               [ 8] 1243 	inc	sp
      0004E2 21r00r00         [12] 1244 	ld	hl, #_hud_map_offset
      0004E5 2A               [ 8] 1245 	ld	a, (hl+)
      0004E6 5F               [ 4] 1246 	ld	e, a
      0004E7 56               [ 8] 1247 	ld	d, (hl)
      0004E8 D5               [16] 1248 	push	de
      0004E9 AF               [ 4] 1249 	xor	a, a
      0004EA F5               [16] 1250 	push	af
      0004EB 33               [ 8] 1251 	inc	sp
      0004EC 1E 0C            [ 8] 1252 	ld	e, #0x0c
      0004EE 3E 01            [ 8] 1253 	ld	a, #0x01
      0004F0 CDr00r00         [24] 1254 	call	_UpdateMapTile
                           0004F3  1255 	C$StateGame.c$180$2_1$224	= .
                                   1256 	.globl	C$StateGame.c$180$2_1$224
                                   1257 ;StateGame.c:180: UPDATE_HUD_TILE(12,1,24);
      0004F3 11 00 00         [12] 1258 	ld	de, #0x0000
      0004F6 D5               [16] 1259 	push	de
      0004F7 3E 18            [ 8] 1260 	ld	a, #0x18
      0004F9 F5               [16] 1261 	push	af
      0004FA 33               [ 8] 1262 	inc	sp
      0004FB 21r00r00         [12] 1263 	ld	hl, #_hud_map_offset
      0004FE 2A               [ 8] 1264 	ld	a, (hl+)
      0004FF 5F               [ 4] 1265 	ld	e, a
      000500 56               [ 8] 1266 	ld	d, (hl)
      000501 D5               [16] 1267 	push	de
      000502 3E 01            [ 8] 1268 	ld	a, #0x01
      000504 F5               [16] 1269 	push	af
      000505 33               [ 8] 1270 	inc	sp
      000506 1E 0C            [ 8] 1271 	ld	e, #0x0c
      000508 3E 01            [ 8] 1272 	ld	a, #0x01
      00050A CDr00r00         [24] 1273 	call	_UpdateMapTile
                           00050D  1274 	C$StateGame.c$181$2_1$224	= .
                                   1275 	.globl	C$StateGame.c$181$2_1$224
                                   1276 ;StateGame.c:181: break;
      00050D C3r77r07         [16] 1277 	jp	00108$
                           000510  1278 	C$StateGame.c$182$2_1$224	= .
                                   1279 	.globl	C$StateGame.c$182$2_1$224
                                   1280 ;StateGame.c:182: case SLEEP:
      000510                       1281 00106$:
                           000510  1282 	C$StateGame.c$183$2_1$224	= .
                                   1283 	.globl	C$StateGame.c$183$2_1$224
                                   1284 ;StateGame.c:183: UPDATE_HUD_TILE(7,0,9);
      000510 11 00 00         [12] 1285 	ld	de, #0x0000
      000513 D5               [16] 1286 	push	de
      000514 3E 09            [ 8] 1287 	ld	a, #0x09
      000516 F5               [16] 1288 	push	af
      000517 33               [ 8] 1289 	inc	sp
      000518 21r00r00         [12] 1290 	ld	hl, #_hud_map_offset
      00051B 2A               [ 8] 1291 	ld	a, (hl+)
      00051C 5F               [ 4] 1292 	ld	e, a
      00051D 56               [ 8] 1293 	ld	d, (hl)
      00051E D5               [16] 1294 	push	de
      00051F AF               [ 4] 1295 	xor	a, a
      000520 F5               [16] 1296 	push	af
      000521 33               [ 8] 1297 	inc	sp
      000522 1E 07            [ 8] 1298 	ld	e, #0x07
      000524 3E 01            [ 8] 1299 	ld	a, #0x01
      000526 CDr00r00         [24] 1300 	call	_UpdateMapTile
                           000529  1301 	C$StateGame.c$184$2_1$224	= .
                                   1302 	.globl	C$StateGame.c$184$2_1$224
                                   1303 ;StateGame.c:184: UPDATE_HUD_TILE(7,1,10);
      000529 11 00 00         [12] 1304 	ld	de, #0x0000
      00052C D5               [16] 1305 	push	de
      00052D 3E 0A            [ 8] 1306 	ld	a, #0x0a
      00052F F5               [16] 1307 	push	af
      000530 33               [ 8] 1308 	inc	sp
      000531 21r00r00         [12] 1309 	ld	hl, #_hud_map_offset
      000534 2A               [ 8] 1310 	ld	a, (hl+)
      000535 5F               [ 4] 1311 	ld	e, a
      000536 56               [ 8] 1312 	ld	d, (hl)
      000537 D5               [16] 1313 	push	de
      000538 3E 01            [ 8] 1314 	ld	a, #0x01
      00053A F5               [16] 1315 	push	af
      00053B 33               [ 8] 1316 	inc	sp
      00053C 1E 07            [ 8] 1317 	ld	e, #0x07
      00053E 3E 01            [ 8] 1318 	ld	a, #0x01
      000540 CDr00r00         [24] 1319 	call	_UpdateMapTile
                           000543  1320 	C$StateGame.c$185$2_1$224	= .
                                   1321 	.globl	C$StateGame.c$185$2_1$224
                                   1322 ;StateGame.c:185: UPDATE_HUD_TILE(8,0,11);
      000543 11 00 00         [12] 1323 	ld	de, #0x0000
      000546 D5               [16] 1324 	push	de
      000547 3E 0B            [ 8] 1325 	ld	a, #0x0b
      000549 F5               [16] 1326 	push	af
      00054A 33               [ 8] 1327 	inc	sp
      00054B 21r00r00         [12] 1328 	ld	hl, #_hud_map_offset
      00054E 2A               [ 8] 1329 	ld	a, (hl+)
      00054F 5F               [ 4] 1330 	ld	e, a
      000550 56               [ 8] 1331 	ld	d, (hl)
      000551 D5               [16] 1332 	push	de
      000552 AF               [ 4] 1333 	xor	a, a
      000553 F5               [16] 1334 	push	af
      000554 33               [ 8] 1335 	inc	sp
      000555 1E 08            [ 8] 1336 	ld	e, #0x08
      000557 3E 01            [ 8] 1337 	ld	a, #0x01
      000559 CDr00r00         [24] 1338 	call	_UpdateMapTile
                           00055C  1339 	C$StateGame.c$186$2_1$224	= .
                                   1340 	.globl	C$StateGame.c$186$2_1$224
                                   1341 ;StateGame.c:186: UPDATE_HUD_TILE(8,1,12);
      00055C 11 00 00         [12] 1342 	ld	de, #0x0000
      00055F D5               [16] 1343 	push	de
      000560 3E 0C            [ 8] 1344 	ld	a, #0x0c
      000562 F5               [16] 1345 	push	af
      000563 33               [ 8] 1346 	inc	sp
      000564 21r00r00         [12] 1347 	ld	hl, #_hud_map_offset
      000567 2A               [ 8] 1348 	ld	a, (hl+)
      000568 5F               [ 4] 1349 	ld	e, a
      000569 56               [ 8] 1350 	ld	d, (hl)
      00056A D5               [16] 1351 	push	de
      00056B 3E 01            [ 8] 1352 	ld	a, #0x01
      00056D F5               [16] 1353 	push	af
      00056E 33               [ 8] 1354 	inc	sp
      00056F 1E 08            [ 8] 1355 	ld	e, #0x08
      000571 3E 01            [ 8] 1356 	ld	a, #0x01
      000573 CDr00r00         [24] 1357 	call	_UpdateMapTile
                           000576  1358 	C$StateGame.c$188$2_1$224	= .
                                   1359 	.globl	C$StateGame.c$188$2_1$224
                                   1360 ;StateGame.c:188: UPDATE_HUD_TILE(9,0,13);
      000576 11 00 00         [12] 1361 	ld	de, #0x0000
      000579 D5               [16] 1362 	push	de
      00057A 3E 0D            [ 8] 1363 	ld	a, #0x0d
      00057C F5               [16] 1364 	push	af
      00057D 33               [ 8] 1365 	inc	sp
      00057E 21r00r00         [12] 1366 	ld	hl, #_hud_map_offset
      000581 2A               [ 8] 1367 	ld	a, (hl+)
      000582 5F               [ 4] 1368 	ld	e, a
      000583 56               [ 8] 1369 	ld	d, (hl)
      000584 D5               [16] 1370 	push	de
      000585 AF               [ 4] 1371 	xor	a, a
      000586 F5               [16] 1372 	push	af
      000587 33               [ 8] 1373 	inc	sp
      000588 1E 09            [ 8] 1374 	ld	e, #0x09
      00058A 3E 01            [ 8] 1375 	ld	a, #0x01
      00058C CDr00r00         [24] 1376 	call	_UpdateMapTile
                           00058F  1377 	C$StateGame.c$189$2_1$224	= .
                                   1378 	.globl	C$StateGame.c$189$2_1$224
                                   1379 ;StateGame.c:189: UPDATE_HUD_TILE(9,1,14);
      00058F 11 00 00         [12] 1380 	ld	de, #0x0000
      000592 D5               [16] 1381 	push	de
      000593 3E 0E            [ 8] 1382 	ld	a, #0x0e
      000595 F5               [16] 1383 	push	af
      000596 33               [ 8] 1384 	inc	sp
      000597 21r00r00         [12] 1385 	ld	hl, #_hud_map_offset
      00059A 2A               [ 8] 1386 	ld	a, (hl+)
      00059B 5F               [ 4] 1387 	ld	e, a
      00059C 56               [ 8] 1388 	ld	d, (hl)
      00059D D5               [16] 1389 	push	de
      00059E 3E 01            [ 8] 1390 	ld	a, #0x01
      0005A0 F5               [16] 1391 	push	af
      0005A1 33               [ 8] 1392 	inc	sp
      0005A2 1E 09            [ 8] 1393 	ld	e, #0x09
      0005A4 3E 01            [ 8] 1394 	ld	a, #0x01
      0005A6 CDr00r00         [24] 1395 	call	_UpdateMapTile
                           0005A9  1396 	C$StateGame.c$190$2_1$224	= .
                                   1397 	.globl	C$StateGame.c$190$2_1$224
                                   1398 ;StateGame.c:190: UPDATE_HUD_TILE(10,0,15);
      0005A9 11 00 00         [12] 1399 	ld	de, #0x0000
      0005AC D5               [16] 1400 	push	de
      0005AD 3E 0F            [ 8] 1401 	ld	a, #0x0f
      0005AF F5               [16] 1402 	push	af
      0005B0 33               [ 8] 1403 	inc	sp
      0005B1 21r00r00         [12] 1404 	ld	hl, #_hud_map_offset
      0005B4 2A               [ 8] 1405 	ld	a, (hl+)
      0005B5 5F               [ 4] 1406 	ld	e, a
      0005B6 56               [ 8] 1407 	ld	d, (hl)
      0005B7 D5               [16] 1408 	push	de
      0005B8 AF               [ 4] 1409 	xor	a, a
      0005B9 F5               [16] 1410 	push	af
      0005BA 33               [ 8] 1411 	inc	sp
      0005BB 1E 0A            [ 8] 1412 	ld	e, #0x0a
      0005BD 3E 01            [ 8] 1413 	ld	a, #0x01
      0005BF CDr00r00         [24] 1414 	call	_UpdateMapTile
                           0005C2  1415 	C$StateGame.c$191$2_1$224	= .
                                   1416 	.globl	C$StateGame.c$191$2_1$224
                                   1417 ;StateGame.c:191: UPDATE_HUD_TILE(10,1,16);
      0005C2 11 00 00         [12] 1418 	ld	de, #0x0000
      0005C5 D5               [16] 1419 	push	de
      0005C6 3E 10            [ 8] 1420 	ld	a, #0x10
      0005C8 F5               [16] 1421 	push	af
      0005C9 33               [ 8] 1422 	inc	sp
      0005CA 21r00r00         [12] 1423 	ld	hl, #_hud_map_offset
      0005CD 2A               [ 8] 1424 	ld	a, (hl+)
      0005CE 5F               [ 4] 1425 	ld	e, a
      0005CF 56               [ 8] 1426 	ld	d, (hl)
      0005D0 D5               [16] 1427 	push	de
      0005D1 3E 01            [ 8] 1428 	ld	a, #0x01
      0005D3 F5               [16] 1429 	push	af
      0005D4 33               [ 8] 1430 	inc	sp
      0005D5 1E 0A            [ 8] 1431 	ld	e, #0x0a
      0005D7 3E 01            [ 8] 1432 	ld	a, #0x01
      0005D9 CDr00r00         [24] 1433 	call	_UpdateMapTile
                           0005DC  1434 	C$StateGame.c$193$2_1$224	= .
                                   1435 	.globl	C$StateGame.c$193$2_1$224
                                   1436 ;StateGame.c:193: UPDATE_HUD_TILE(11,0,21);
      0005DC 11 00 00         [12] 1437 	ld	de, #0x0000
      0005DF D5               [16] 1438 	push	de
      0005E0 3E 15            [ 8] 1439 	ld	a, #0x15
      0005E2 F5               [16] 1440 	push	af
      0005E3 33               [ 8] 1441 	inc	sp
      0005E4 21r00r00         [12] 1442 	ld	hl, #_hud_map_offset
      0005E7 2A               [ 8] 1443 	ld	a, (hl+)
      0005E8 5F               [ 4] 1444 	ld	e, a
      0005E9 56               [ 8] 1445 	ld	d, (hl)
      0005EA D5               [16] 1446 	push	de
      0005EB AF               [ 4] 1447 	xor	a, a
      0005EC F5               [16] 1448 	push	af
      0005ED 33               [ 8] 1449 	inc	sp
      0005EE 1E 0B            [ 8] 1450 	ld	e, #0x0b
      0005F0 3E 01            [ 8] 1451 	ld	a, #0x01
      0005F2 CDr00r00         [24] 1452 	call	_UpdateMapTile
                           0005F5  1453 	C$StateGame.c$194$2_1$224	= .
                                   1454 	.globl	C$StateGame.c$194$2_1$224
                                   1455 ;StateGame.c:194: UPDATE_HUD_TILE(11,1,22);
      0005F5 11 00 00         [12] 1456 	ld	de, #0x0000
      0005F8 D5               [16] 1457 	push	de
      0005F9 3E 16            [ 8] 1458 	ld	a, #0x16
      0005FB F5               [16] 1459 	push	af
      0005FC 33               [ 8] 1460 	inc	sp
      0005FD 21r00r00         [12] 1461 	ld	hl, #_hud_map_offset
      000600 2A               [ 8] 1462 	ld	a, (hl+)
      000601 5F               [ 4] 1463 	ld	e, a
      000602 56               [ 8] 1464 	ld	d, (hl)
      000603 D5               [16] 1465 	push	de
      000604 3E 01            [ 8] 1466 	ld	a, #0x01
      000606 F5               [16] 1467 	push	af
      000607 33               [ 8] 1468 	inc	sp
      000608 1E 0B            [ 8] 1469 	ld	e, #0x0b
      00060A 3E 01            [ 8] 1470 	ld	a, #0x01
      00060C CDr00r00         [24] 1471 	call	_UpdateMapTile
                           00060F  1472 	C$StateGame.c$195$2_1$224	= .
                                   1473 	.globl	C$StateGame.c$195$2_1$224
                                   1474 ;StateGame.c:195: UPDATE_HUD_TILE(12,0,23);
      00060F 11 00 00         [12] 1475 	ld	de, #0x0000
      000612 D5               [16] 1476 	push	de
      000613 3E 17            [ 8] 1477 	ld	a, #0x17
      000615 F5               [16] 1478 	push	af
      000616 33               [ 8] 1479 	inc	sp
      000617 21r00r00         [12] 1480 	ld	hl, #_hud_map_offset
      00061A 2A               [ 8] 1481 	ld	a, (hl+)
      00061B 5F               [ 4] 1482 	ld	e, a
      00061C 56               [ 8] 1483 	ld	d, (hl)
      00061D D5               [16] 1484 	push	de
      00061E AF               [ 4] 1485 	xor	a, a
      00061F F5               [16] 1486 	push	af
      000620 33               [ 8] 1487 	inc	sp
      000621 1E 0C            [ 8] 1488 	ld	e, #0x0c
      000623 3E 01            [ 8] 1489 	ld	a, #0x01
      000625 CDr00r00         [24] 1490 	call	_UpdateMapTile
                           000628  1491 	C$StateGame.c$196$2_1$224	= .
                                   1492 	.globl	C$StateGame.c$196$2_1$224
                                   1493 ;StateGame.c:196: UPDATE_HUD_TILE(12,1,24);
      000628 11 00 00         [12] 1494 	ld	de, #0x0000
      00062B D5               [16] 1495 	push	de
      00062C 3E 18            [ 8] 1496 	ld	a, #0x18
      00062E F5               [16] 1497 	push	af
      00062F 33               [ 8] 1498 	inc	sp
      000630 21r00r00         [12] 1499 	ld	hl, #_hud_map_offset
      000633 2A               [ 8] 1500 	ld	a, (hl+)
      000634 5F               [ 4] 1501 	ld	e, a
      000635 56               [ 8] 1502 	ld	d, (hl)
      000636 D5               [16] 1503 	push	de
      000637 3E 01            [ 8] 1504 	ld	a, #0x01
      000639 F5               [16] 1505 	push	af
      00063A 33               [ 8] 1506 	inc	sp
      00063B 1E 0C            [ 8] 1507 	ld	e, #0x0c
      00063D 3E 01            [ 8] 1508 	ld	a, #0x01
      00063F CDr00r00         [24] 1509 	call	_UpdateMapTile
                           000642  1510 	C$StateGame.c$197$2_1$224	= .
                                   1511 	.globl	C$StateGame.c$197$2_1$224
                                   1512 ;StateGame.c:197: break;
      000642 C3r77r07         [16] 1513 	jp	00108$
                           000645  1514 	C$StateGame.c$198$2_1$224	= .
                                   1515 	.globl	C$StateGame.c$198$2_1$224
                                   1516 ;StateGame.c:198: case REPEL:
      000645                       1517 00107$:
                           000645  1518 	C$StateGame.c$199$2_1$224	= .
                                   1519 	.globl	C$StateGame.c$199$2_1$224
                                   1520 ;StateGame.c:199: UPDATE_HUD_TILE(7,0,9);
      000645 11 00 00         [12] 1521 	ld	de, #0x0000
      000648 D5               [16] 1522 	push	de
      000649 3E 09            [ 8] 1523 	ld	a, #0x09
      00064B F5               [16] 1524 	push	af
      00064C 33               [ 8] 1525 	inc	sp
      00064D 21r00r00         [12] 1526 	ld	hl, #_hud_map_offset
      000650 2A               [ 8] 1527 	ld	a, (hl+)
      000651 5F               [ 4] 1528 	ld	e, a
      000652 56               [ 8] 1529 	ld	d, (hl)
      000653 D5               [16] 1530 	push	de
      000654 AF               [ 4] 1531 	xor	a, a
      000655 F5               [16] 1532 	push	af
      000656 33               [ 8] 1533 	inc	sp
      000657 1E 07            [ 8] 1534 	ld	e, #0x07
      000659 3E 01            [ 8] 1535 	ld	a, #0x01
      00065B CDr00r00         [24] 1536 	call	_UpdateMapTile
                           00065E  1537 	C$StateGame.c$200$2_1$224	= .
                                   1538 	.globl	C$StateGame.c$200$2_1$224
                                   1539 ;StateGame.c:200: UPDATE_HUD_TILE(7,1,10);
      00065E 11 00 00         [12] 1540 	ld	de, #0x0000
      000661 D5               [16] 1541 	push	de
      000662 3E 0A            [ 8] 1542 	ld	a, #0x0a
      000664 F5               [16] 1543 	push	af
      000665 33               [ 8] 1544 	inc	sp
      000666 21r00r00         [12] 1545 	ld	hl, #_hud_map_offset
      000669 2A               [ 8] 1546 	ld	a, (hl+)
      00066A 5F               [ 4] 1547 	ld	e, a
      00066B 56               [ 8] 1548 	ld	d, (hl)
      00066C D5               [16] 1549 	push	de
      00066D 3E 01            [ 8] 1550 	ld	a, #0x01
      00066F F5               [16] 1551 	push	af
      000670 33               [ 8] 1552 	inc	sp
      000671 1E 07            [ 8] 1553 	ld	e, #0x07
      000673 3E 01            [ 8] 1554 	ld	a, #0x01
      000675 CDr00r00         [24] 1555 	call	_UpdateMapTile
                           000678  1556 	C$StateGame.c$201$2_1$224	= .
                                   1557 	.globl	C$StateGame.c$201$2_1$224
                                   1558 ;StateGame.c:201: UPDATE_HUD_TILE(8,0,11);
      000678 11 00 00         [12] 1559 	ld	de, #0x0000
      00067B D5               [16] 1560 	push	de
      00067C 3E 0B            [ 8] 1561 	ld	a, #0x0b
      00067E F5               [16] 1562 	push	af
      00067F 33               [ 8] 1563 	inc	sp
      000680 21r00r00         [12] 1564 	ld	hl, #_hud_map_offset
      000683 2A               [ 8] 1565 	ld	a, (hl+)
      000684 5F               [ 4] 1566 	ld	e, a
      000685 56               [ 8] 1567 	ld	d, (hl)
      000686 D5               [16] 1568 	push	de
      000687 AF               [ 4] 1569 	xor	a, a
      000688 F5               [16] 1570 	push	af
      000689 33               [ 8] 1571 	inc	sp
      00068A 1E 08            [ 8] 1572 	ld	e, #0x08
      00068C 3E 01            [ 8] 1573 	ld	a, #0x01
      00068E CDr00r00         [24] 1574 	call	_UpdateMapTile
                           000691  1575 	C$StateGame.c$202$2_1$224	= .
                                   1576 	.globl	C$StateGame.c$202$2_1$224
                                   1577 ;StateGame.c:202: UPDATE_HUD_TILE(8,1,12);
      000691 11 00 00         [12] 1578 	ld	de, #0x0000
      000694 D5               [16] 1579 	push	de
      000695 3E 0C            [ 8] 1580 	ld	a, #0x0c
      000697 F5               [16] 1581 	push	af
      000698 33               [ 8] 1582 	inc	sp
      000699 21r00r00         [12] 1583 	ld	hl, #_hud_map_offset
      00069C 2A               [ 8] 1584 	ld	a, (hl+)
      00069D 5F               [ 4] 1585 	ld	e, a
      00069E 56               [ 8] 1586 	ld	d, (hl)
      00069F D5               [16] 1587 	push	de
      0006A0 3E 01            [ 8] 1588 	ld	a, #0x01
      0006A2 F5               [16] 1589 	push	af
      0006A3 33               [ 8] 1590 	inc	sp
      0006A4 1E 08            [ 8] 1591 	ld	e, #0x08
      0006A6 3E 01            [ 8] 1592 	ld	a, #0x01
      0006A8 CDr00r00         [24] 1593 	call	_UpdateMapTile
                           0006AB  1594 	C$StateGame.c$204$2_1$224	= .
                                   1595 	.globl	C$StateGame.c$204$2_1$224
                                   1596 ;StateGame.c:204: UPDATE_HUD_TILE(9,0,17);
      0006AB 11 00 00         [12] 1597 	ld	de, #0x0000
      0006AE D5               [16] 1598 	push	de
      0006AF 3E 11            [ 8] 1599 	ld	a, #0x11
      0006B1 F5               [16] 1600 	push	af
      0006B2 33               [ 8] 1601 	inc	sp
      0006B3 21r00r00         [12] 1602 	ld	hl, #_hud_map_offset
      0006B6 2A               [ 8] 1603 	ld	a, (hl+)
      0006B7 5F               [ 4] 1604 	ld	e, a
      0006B8 56               [ 8] 1605 	ld	d, (hl)
      0006B9 D5               [16] 1606 	push	de
      0006BA AF               [ 4] 1607 	xor	a, a
      0006BB F5               [16] 1608 	push	af
      0006BC 33               [ 8] 1609 	inc	sp
      0006BD 1E 09            [ 8] 1610 	ld	e, #0x09
      0006BF 3E 01            [ 8] 1611 	ld	a, #0x01
      0006C1 CDr00r00         [24] 1612 	call	_UpdateMapTile
                           0006C4  1613 	C$StateGame.c$205$2_1$224	= .
                                   1614 	.globl	C$StateGame.c$205$2_1$224
                                   1615 ;StateGame.c:205: UPDATE_HUD_TILE(9,1,18);
      0006C4 11 00 00         [12] 1616 	ld	de, #0x0000
      0006C7 D5               [16] 1617 	push	de
      0006C8 3E 12            [ 8] 1618 	ld	a, #0x12
      0006CA F5               [16] 1619 	push	af
      0006CB 33               [ 8] 1620 	inc	sp
      0006CC 21r00r00         [12] 1621 	ld	hl, #_hud_map_offset
      0006CF 2A               [ 8] 1622 	ld	a, (hl+)
      0006D0 5F               [ 4] 1623 	ld	e, a
      0006D1 56               [ 8] 1624 	ld	d, (hl)
      0006D2 D5               [16] 1625 	push	de
      0006D3 3E 01            [ 8] 1626 	ld	a, #0x01
      0006D5 F5               [16] 1627 	push	af
      0006D6 33               [ 8] 1628 	inc	sp
      0006D7 1E 09            [ 8] 1629 	ld	e, #0x09
      0006D9 3E 01            [ 8] 1630 	ld	a, #0x01
      0006DB CDr00r00         [24] 1631 	call	_UpdateMapTile
                           0006DE  1632 	C$StateGame.c$206$2_1$224	= .
                                   1633 	.globl	C$StateGame.c$206$2_1$224
                                   1634 ;StateGame.c:206: UPDATE_HUD_TILE(10,0,19);
      0006DE 11 00 00         [12] 1635 	ld	de, #0x0000
      0006E1 D5               [16] 1636 	push	de
      0006E2 3E 13            [ 8] 1637 	ld	a, #0x13
      0006E4 F5               [16] 1638 	push	af
      0006E5 33               [ 8] 1639 	inc	sp
      0006E6 21r00r00         [12] 1640 	ld	hl, #_hud_map_offset
      0006E9 2A               [ 8] 1641 	ld	a, (hl+)
      0006EA 5F               [ 4] 1642 	ld	e, a
      0006EB 56               [ 8] 1643 	ld	d, (hl)
      0006EC D5               [16] 1644 	push	de
      0006ED AF               [ 4] 1645 	xor	a, a
      0006EE F5               [16] 1646 	push	af
      0006EF 33               [ 8] 1647 	inc	sp
      0006F0 1E 0A            [ 8] 1648 	ld	e, #0x0a
      0006F2 3E 01            [ 8] 1649 	ld	a, #0x01
      0006F4 CDr00r00         [24] 1650 	call	_UpdateMapTile
                           0006F7  1651 	C$StateGame.c$207$2_1$224	= .
                                   1652 	.globl	C$StateGame.c$207$2_1$224
                                   1653 ;StateGame.c:207: UPDATE_HUD_TILE(10,1,20);
      0006F7 11 00 00         [12] 1654 	ld	de, #0x0000
      0006FA D5               [16] 1655 	push	de
      0006FB 3E 14            [ 8] 1656 	ld	a, #0x14
      0006FD F5               [16] 1657 	push	af
      0006FE 33               [ 8] 1658 	inc	sp
      0006FF 21r00r00         [12] 1659 	ld	hl, #_hud_map_offset
      000702 2A               [ 8] 1660 	ld	a, (hl+)
      000703 5F               [ 4] 1661 	ld	e, a
      000704 56               [ 8] 1662 	ld	d, (hl)
      000705 D5               [16] 1663 	push	de
      000706 3E 01            [ 8] 1664 	ld	a, #0x01
      000708 F5               [16] 1665 	push	af
      000709 33               [ 8] 1666 	inc	sp
      00070A 1E 0A            [ 8] 1667 	ld	e, #0x0a
      00070C 3E 01            [ 8] 1668 	ld	a, #0x01
      00070E CDr00r00         [24] 1669 	call	_UpdateMapTile
                           000711  1670 	C$StateGame.c$209$2_1$224	= .
                                   1671 	.globl	C$StateGame.c$209$2_1$224
                                   1672 ;StateGame.c:209: UPDATE_HUD_TILE(11,0,48);
      000711 11 00 00         [12] 1673 	ld	de, #0x0000
      000714 D5               [16] 1674 	push	de
      000715 3E 30            [ 8] 1675 	ld	a, #0x30
      000717 F5               [16] 1676 	push	af
      000718 33               [ 8] 1677 	inc	sp
      000719 21r00r00         [12] 1678 	ld	hl, #_hud_map_offset
      00071C 2A               [ 8] 1679 	ld	a, (hl+)
      00071D 5F               [ 4] 1680 	ld	e, a
      00071E 56               [ 8] 1681 	ld	d, (hl)
      00071F D5               [16] 1682 	push	de
      000720 AF               [ 4] 1683 	xor	a, a
      000721 F5               [16] 1684 	push	af
      000722 33               [ 8] 1685 	inc	sp
      000723 1E 0B            [ 8] 1686 	ld	e, #0x0b
      000725 3E 01            [ 8] 1687 	ld	a, #0x01
      000727 CDr00r00         [24] 1688 	call	_UpdateMapTile
                           00072A  1689 	C$StateGame.c$210$2_1$224	= .
                                   1690 	.globl	C$StateGame.c$210$2_1$224
                                   1691 ;StateGame.c:210: UPDATE_HUD_TILE(11,1,49);
      00072A 11 00 00         [12] 1692 	ld	de, #0x0000
      00072D D5               [16] 1693 	push	de
      00072E 3E 31            [ 8] 1694 	ld	a, #0x31
      000730 F5               [16] 1695 	push	af
      000731 33               [ 8] 1696 	inc	sp
      000732 21r00r00         [12] 1697 	ld	hl, #_hud_map_offset
      000735 2A               [ 8] 1698 	ld	a, (hl+)
      000736 5F               [ 4] 1699 	ld	e, a
      000737 56               [ 8] 1700 	ld	d, (hl)
      000738 D5               [16] 1701 	push	de
      000739 3E 01            [ 8] 1702 	ld	a, #0x01
      00073B F5               [16] 1703 	push	af
      00073C 33               [ 8] 1704 	inc	sp
      00073D 1E 0B            [ 8] 1705 	ld	e, #0x0b
      00073F 3E 01            [ 8] 1706 	ld	a, #0x01
      000741 CDr00r00         [24] 1707 	call	_UpdateMapTile
                           000744  1708 	C$StateGame.c$211$2_1$224	= .
                                   1709 	.globl	C$StateGame.c$211$2_1$224
                                   1710 ;StateGame.c:211: UPDATE_HUD_TILE(12,0,50);
      000744 11 00 00         [12] 1711 	ld	de, #0x0000
      000747 D5               [16] 1712 	push	de
      000748 3E 32            [ 8] 1713 	ld	a, #0x32
      00074A F5               [16] 1714 	push	af
      00074B 33               [ 8] 1715 	inc	sp
      00074C 21r00r00         [12] 1716 	ld	hl, #_hud_map_offset
      00074F 2A               [ 8] 1717 	ld	a, (hl+)
      000750 5F               [ 4] 1718 	ld	e, a
      000751 56               [ 8] 1719 	ld	d, (hl)
      000752 D5               [16] 1720 	push	de
      000753 AF               [ 4] 1721 	xor	a, a
      000754 F5               [16] 1722 	push	af
      000755 33               [ 8] 1723 	inc	sp
      000756 1E 0C            [ 8] 1724 	ld	e, #0x0c
      000758 3E 01            [ 8] 1725 	ld	a, #0x01
      00075A CDr00r00         [24] 1726 	call	_UpdateMapTile
                           00075D  1727 	C$StateGame.c$212$2_1$224	= .
                                   1728 	.globl	C$StateGame.c$212$2_1$224
                                   1729 ;StateGame.c:212: UPDATE_HUD_TILE(12,1,51);
      00075D 11 00 00         [12] 1730 	ld	de, #0x0000
      000760 D5               [16] 1731 	push	de
      000761 3E 33            [ 8] 1732 	ld	a, #0x33
      000763 F5               [16] 1733 	push	af
      000764 33               [ 8] 1734 	inc	sp
      000765 21r00r00         [12] 1735 	ld	hl, #_hud_map_offset
      000768 2A               [ 8] 1736 	ld	a, (hl+)
      000769 5F               [ 4] 1737 	ld	e, a
      00076A 56               [ 8] 1738 	ld	d, (hl)
      00076B D5               [16] 1739 	push	de
      00076C 3E 01            [ 8] 1740 	ld	a, #0x01
      00076E F5               [16] 1741 	push	af
      00076F 33               [ 8] 1742 	inc	sp
      000770 1E 0C            [ 8] 1743 	ld	e, #0x0c
      000772 3E 01            [ 8] 1744 	ld	a, #0x01
      000774 CDr00r00         [24] 1745 	call	_UpdateMapTile
                           000777  1746 	C$StateGame.c$214$1_1$219	= .
                                   1747 	.globl	C$StateGame.c$214$1_1$219
                                   1748 ;StateGame.c:214: }
      000777                       1749 00108$:
                           000777  1750 	C$StateGame.c$216$1_1$219	= .
                                   1751 	.globl	C$StateGame.c$216$1_1$219
                                   1752 ;StateGame.c:216: if(countdown < orpheus_power_max){
      000777 21r00r00         [12] 1753 	ld	hl, #_orpheus_power_max
      00077A 5E               [ 8] 1754 	ld	e, (hl)
      00077B FAr00r00         [16] 1755 	ld	a, (#_countdown)
      00077E 57               [ 4] 1756 	ld	d,a
      00077F 21r00r00         [12] 1757 	ld	hl, #_orpheus_power_max
      000782 96               [ 8] 1758 	sub	a, (hl)
      000783 CB 7B            [ 8] 1759 	bit	7, e
      000785 28 07            [12] 1760 	jr	Z, 00233$
      000787 CB 7A            [ 8] 1761 	bit	7, d
      000789 20 08            [12] 1762 	jr	NZ, 00234$
      00078B BF               [ 4] 1763 	cp	a, a
      00078C 18 05            [12] 1764 	jr	00234$
      00078E                       1765 00233$:
      00078E CB 7A            [ 8] 1766 	bit	7, d
      000790 28 01            [12] 1767 	jr	Z, 00234$
      000792 37               [ 4] 1768 	scf
      000793                       1769 00234$:
      000793 D2r95r08         [16] 1770 	jp	NC, 00110$
                           000796  1771 	C$StateGame.c$217$2_1$225	= .
                                   1772 	.globl	C$StateGame.c$217$2_1$225
                                   1773 ;StateGame.c:217: UPDATE_HUD_TILE(14,0,45);
      000796 11 00 00         [12] 1774 	ld	de, #0x0000
      000799 D5               [16] 1775 	push	de
      00079A 3E 2D            [ 8] 1776 	ld	a, #0x2d
      00079C F5               [16] 1777 	push	af
      00079D 33               [ 8] 1778 	inc	sp
      00079E 21r00r00         [12] 1779 	ld	hl, #_hud_map_offset
      0007A1 2A               [ 8] 1780 	ld	a, (hl+)
      0007A2 5F               [ 4] 1781 	ld	e, a
      0007A3 56               [ 8] 1782 	ld	d, (hl)
      0007A4 D5               [16] 1783 	push	de
      0007A5 AF               [ 4] 1784 	xor	a, a
      0007A6 F5               [16] 1785 	push	af
      0007A7 33               [ 8] 1786 	inc	sp
      0007A8 1E 0E            [ 8] 1787 	ld	e, #0x0e
      0007AA 3E 01            [ 8] 1788 	ld	a, #0x01
      0007AC CDr00r00         [24] 1789 	call	_UpdateMapTile
                           0007AF  1790 	C$StateGame.c$218$2_1$225	= .
                                   1791 	.globl	C$StateGame.c$218$2_1$225
                                   1792 ;StateGame.c:218: UPDATE_HUD_TILE(14,1,46);
      0007AF 11 00 00         [12] 1793 	ld	de, #0x0000
      0007B2 D5               [16] 1794 	push	de
      0007B3 3E 2E            [ 8] 1795 	ld	a, #0x2e
      0007B5 F5               [16] 1796 	push	af
      0007B6 33               [ 8] 1797 	inc	sp
      0007B7 21r00r00         [12] 1798 	ld	hl, #_hud_map_offset
      0007BA 2A               [ 8] 1799 	ld	a, (hl+)
      0007BB 5F               [ 4] 1800 	ld	e, a
      0007BC 56               [ 8] 1801 	ld	d, (hl)
      0007BD D5               [16] 1802 	push	de
      0007BE 3E 01            [ 8] 1803 	ld	a, #0x01
      0007C0 F5               [16] 1804 	push	af
      0007C1 33               [ 8] 1805 	inc	sp
      0007C2 1E 0E            [ 8] 1806 	ld	e, #0x0e
      0007C4 3E 01            [ 8] 1807 	ld	a, #0x01
      0007C6 CDr00r00         [24] 1808 	call	_UpdateMapTile
                           0007C9  1809 	C$StateGame.c$219$2_1$225	= .
                                   1810 	.globl	C$StateGame.c$219$2_1$225
                                   1811 ;StateGame.c:219: UPDATE_HUD_TILE(15,0,45);
      0007C9 11 00 00         [12] 1812 	ld	de, #0x0000
      0007CC D5               [16] 1813 	push	de
      0007CD 3E 2D            [ 8] 1814 	ld	a, #0x2d
      0007CF F5               [16] 1815 	push	af
      0007D0 33               [ 8] 1816 	inc	sp
      0007D1 21r00r00         [12] 1817 	ld	hl, #_hud_map_offset
      0007D4 2A               [ 8] 1818 	ld	a, (hl+)
      0007D5 5F               [ 4] 1819 	ld	e, a
      0007D6 56               [ 8] 1820 	ld	d, (hl)
      0007D7 D5               [16] 1821 	push	de
      0007D8 AF               [ 4] 1822 	xor	a, a
      0007D9 F5               [16] 1823 	push	af
      0007DA 33               [ 8] 1824 	inc	sp
      0007DB 1E 0F            [ 8] 1825 	ld	e, #0x0f
      0007DD 3E 01            [ 8] 1826 	ld	a, #0x01
      0007DF CDr00r00         [24] 1827 	call	_UpdateMapTile
                           0007E2  1828 	C$StateGame.c$220$2_1$225	= .
                                   1829 	.globl	C$StateGame.c$220$2_1$225
                                   1830 ;StateGame.c:220: UPDATE_HUD_TILE(15,1,46);
      0007E2 11 00 00         [12] 1831 	ld	de, #0x0000
      0007E5 D5               [16] 1832 	push	de
      0007E6 3E 2E            [ 8] 1833 	ld	a, #0x2e
      0007E8 F5               [16] 1834 	push	af
      0007E9 33               [ 8] 1835 	inc	sp
      0007EA 21r00r00         [12] 1836 	ld	hl, #_hud_map_offset
      0007ED 2A               [ 8] 1837 	ld	a, (hl+)
      0007EE 5F               [ 4] 1838 	ld	e, a
      0007EF 56               [ 8] 1839 	ld	d, (hl)
      0007F0 D5               [16] 1840 	push	de
      0007F1 3E 01            [ 8] 1841 	ld	a, #0x01
      0007F3 F5               [16] 1842 	push	af
      0007F4 33               [ 8] 1843 	inc	sp
      0007F5 1E 0F            [ 8] 1844 	ld	e, #0x0f
      0007F7 3E 01            [ 8] 1845 	ld	a, #0x01
      0007F9 CDr00r00         [24] 1846 	call	_UpdateMapTile
                           0007FC  1847 	C$StateGame.c$221$2_1$225	= .
                                   1848 	.globl	C$StateGame.c$221$2_1$225
                                   1849 ;StateGame.c:221: UPDATE_HUD_TILE(16,0,45);
      0007FC 11 00 00         [12] 1850 	ld	de, #0x0000
      0007FF D5               [16] 1851 	push	de
      000800 3E 2D            [ 8] 1852 	ld	a, #0x2d
      000802 F5               [16] 1853 	push	af
      000803 33               [ 8] 1854 	inc	sp
      000804 21r00r00         [12] 1855 	ld	hl, #_hud_map_offset
      000807 2A               [ 8] 1856 	ld	a, (hl+)
      000808 5F               [ 4] 1857 	ld	e, a
      000809 56               [ 8] 1858 	ld	d, (hl)
      00080A D5               [16] 1859 	push	de
      00080B AF               [ 4] 1860 	xor	a, a
      00080C F5               [16] 1861 	push	af
      00080D 33               [ 8] 1862 	inc	sp
      00080E 1E 10            [ 8] 1863 	ld	e, #0x10
      000810 3E 01            [ 8] 1864 	ld	a, #0x01
      000812 CDr00r00         [24] 1865 	call	_UpdateMapTile
                           000815  1866 	C$StateGame.c$222$2_1$225	= .
                                   1867 	.globl	C$StateGame.c$222$2_1$225
                                   1868 ;StateGame.c:222: UPDATE_HUD_TILE(16,1,46);
      000815 11 00 00         [12] 1869 	ld	de, #0x0000
      000818 D5               [16] 1870 	push	de
      000819 3E 2E            [ 8] 1871 	ld	a, #0x2e
      00081B F5               [16] 1872 	push	af
      00081C 33               [ 8] 1873 	inc	sp
      00081D 21r00r00         [12] 1874 	ld	hl, #_hud_map_offset
      000820 2A               [ 8] 1875 	ld	a, (hl+)
      000821 5F               [ 4] 1876 	ld	e, a
      000822 56               [ 8] 1877 	ld	d, (hl)
      000823 D5               [16] 1878 	push	de
      000824 3E 01            [ 8] 1879 	ld	a, #0x01
      000826 F5               [16] 1880 	push	af
      000827 33               [ 8] 1881 	inc	sp
      000828 1E 10            [ 8] 1882 	ld	e, #0x10
      00082A 3E 01            [ 8] 1883 	ld	a, #0x01
      00082C CDr00r00         [24] 1884 	call	_UpdateMapTile
                           00082F  1885 	C$StateGame.c$223$2_1$225	= .
                                   1886 	.globl	C$StateGame.c$223$2_1$225
                                   1887 ;StateGame.c:223: UPDATE_HUD_TILE(17,0,45);
      00082F 11 00 00         [12] 1888 	ld	de, #0x0000
      000832 D5               [16] 1889 	push	de
      000833 3E 2D            [ 8] 1890 	ld	a, #0x2d
      000835 F5               [16] 1891 	push	af
      000836 33               [ 8] 1892 	inc	sp
      000837 21r00r00         [12] 1893 	ld	hl, #_hud_map_offset
      00083A 2A               [ 8] 1894 	ld	a, (hl+)
      00083B 5F               [ 4] 1895 	ld	e, a
      00083C 56               [ 8] 1896 	ld	d, (hl)
      00083D D5               [16] 1897 	push	de
      00083E AF               [ 4] 1898 	xor	a, a
      00083F F5               [16] 1899 	push	af
      000840 33               [ 8] 1900 	inc	sp
      000841 1E 11            [ 8] 1901 	ld	e, #0x11
      000843 3E 01            [ 8] 1902 	ld	a, #0x01
      000845 CDr00r00         [24] 1903 	call	_UpdateMapTile
                           000848  1904 	C$StateGame.c$224$2_1$225	= .
                                   1905 	.globl	C$StateGame.c$224$2_1$225
                                   1906 ;StateGame.c:224: UPDATE_HUD_TILE(17,1,46);
      000848 11 00 00         [12] 1907 	ld	de, #0x0000
      00084B D5               [16] 1908 	push	de
      00084C 3E 2E            [ 8] 1909 	ld	a, #0x2e
      00084E F5               [16] 1910 	push	af
      00084F 33               [ 8] 1911 	inc	sp
      000850 21r00r00         [12] 1912 	ld	hl, #_hud_map_offset
      000853 2A               [ 8] 1913 	ld	a, (hl+)
      000854 5F               [ 4] 1914 	ld	e, a
      000855 56               [ 8] 1915 	ld	d, (hl)
      000856 D5               [16] 1916 	push	de
      000857 3E 01            [ 8] 1917 	ld	a, #0x01
      000859 F5               [16] 1918 	push	af
      00085A 33               [ 8] 1919 	inc	sp
      00085B 1E 11            [ 8] 1920 	ld	e, #0x11
      00085D 3E 01            [ 8] 1921 	ld	a, #0x01
      00085F CDr00r00         [24] 1922 	call	_UpdateMapTile
                           000862  1923 	C$StateGame.c$225$2_1$225	= .
                                   1924 	.globl	C$StateGame.c$225$2_1$225
                                   1925 ;StateGame.c:225: UPDATE_HUD_TILE(18,0,45);
      000862 11 00 00         [12] 1926 	ld	de, #0x0000
      000865 D5               [16] 1927 	push	de
      000866 3E 2D            [ 8] 1928 	ld	a, #0x2d
      000868 F5               [16] 1929 	push	af
      000869 33               [ 8] 1930 	inc	sp
      00086A 21r00r00         [12] 1931 	ld	hl, #_hud_map_offset
      00086D 2A               [ 8] 1932 	ld	a, (hl+)
      00086E 5F               [ 4] 1933 	ld	e, a
      00086F 56               [ 8] 1934 	ld	d, (hl)
      000870 D5               [16] 1935 	push	de
      000871 AF               [ 4] 1936 	xor	a, a
      000872 F5               [16] 1937 	push	af
      000873 33               [ 8] 1938 	inc	sp
      000874 1E 12            [ 8] 1939 	ld	e, #0x12
      000876 3E 01            [ 8] 1940 	ld	a, #0x01
      000878 CDr00r00         [24] 1941 	call	_UpdateMapTile
                           00087B  1942 	C$StateGame.c$226$2_1$225	= .
                                   1943 	.globl	C$StateGame.c$226$2_1$225
                                   1944 ;StateGame.c:226: UPDATE_HUD_TILE(18,1,46);
      00087B 11 00 00         [12] 1945 	ld	de, #0x0000
      00087E D5               [16] 1946 	push	de
      00087F 3E 2E            [ 8] 1947 	ld	a, #0x2e
      000881 F5               [16] 1948 	push	af
      000882 33               [ 8] 1949 	inc	sp
      000883 21r00r00         [12] 1950 	ld	hl, #_hud_map_offset
      000886 2A               [ 8] 1951 	ld	a, (hl+)
      000887 5F               [ 4] 1952 	ld	e, a
      000888 56               [ 8] 1953 	ld	d, (hl)
      000889 D5               [16] 1954 	push	de
      00088A 3E 01            [ 8] 1955 	ld	a, #0x01
      00088C F5               [16] 1956 	push	af
      00088D 33               [ 8] 1957 	inc	sp
      00088E 1E 12            [ 8] 1958 	ld	e, #0x12
      000890 3E 01            [ 8] 1959 	ld	a, #0x01
      000892 CDr00r00         [24] 1960 	call	_UpdateMapTile
      000895                       1961 00110$:
                           000895  1962 	C$StateGame.c$231$1_2$226	= .
                                   1963 	.globl	C$StateGame.c$231$1_2$226
                                   1964 ;StateGame.c:231: UINT8 countdown_unita = countdown >> 3;
      000895 FAr00r00         [16] 1965 	ld	a, (#_countdown)
      000898 CB 2F            [ 8] 1966 	sra	a
      00089A CB 2F            [ 8] 1967 	sra	a
      00089C CB 2F            [ 8] 1968 	sra	a
      00089E F8 00            [12] 1969 	ldhl	sp,	#0
      0008A0 77               [ 8] 1970 	ld	(hl), a
                           0008A1  1971 	C$StateGame.c$233$1_2$226	= .
                                   1972 	.globl	C$StateGame.c$233$1_2$226
                                   1973 ;StateGame.c:233: if(countdown < 8){
      0008A1 21r00r00         [12] 1974 	ld	hl, #_countdown
      0008A4 7E               [ 8] 1975 	ld	a, (hl)
      0008A5 EE 80            [ 8] 1976 	xor	a, #0x80
      0008A7 D6 88            [ 8] 1977 	sub	a, #0x88
      0008A9 30 03            [12] 1978 	jr	NC, 00112$
                           0008AB  1979 	C$StateGame.c$234$2_2$227	= .
                                   1980 	.globl	C$StateGame.c$234$2_2$227
                                   1981 ;StateGame.c:234: resto = countdown;
      0008AB 7E               [ 8] 1982 	ld	a, (hl)
      0008AC 18 0E            [12] 1983 	jr	00113$
      0008AE                       1984 00112$:
                           0008AE  1985 	C$StateGame.c$236$2_2$228	= .
                                   1986 	.globl	C$StateGame.c$236$2_2$228
                                   1987 ;StateGame.c:236: resto = countdown%8;
      0008AE FAr00r00         [16] 1988 	ld	a, (#_countdown)
      0008B1 5F               [ 4] 1989 	ld	e, a
      0008B2 07               [ 4] 1990 	rlca
      0008B3 9F               [ 4] 1991 	sbc	a, a
      0008B4 57               [ 4] 1992 	ld	d, a
      0008B5 01 08 00         [12] 1993 	ld	bc, #0x0008
      0008B8 CDr00r00         [24] 1994 	call	__modsint
      0008BB 79               [ 4] 1995 	ld	a, c
      0008BC                       1996 00113$:
                           0008BC  1997 	C$StateGame.c$239$1_2$218	= .
                                   1998 	.globl	C$StateGame.c$239$1_2$218
                                   1999 ;StateGame.c:239: fill_bar_idx(0, resto << 1);
      0008BC 87               [ 4] 2000 	add	a, a
      0008BD F8 01            [12] 2001 	ldhl	sp,	#1
                           0008BF  2002 	C$StateGame.c$238$1_2$226	= .
                                   2003 	.globl	C$StateGame.c$238$1_2$226
                                   2004 ;StateGame.c:238: if(countdown_unita < 1){
      0008BF 32               [ 8] 2005 	ld	(hl-), a
      0008C0 7E               [ 8] 2006 	ld	a, (hl)
      0008C1 D6 01            [ 8] 2007 	sub	a, #0x01
      0008C3 30 0B            [12] 2008 	jr	NC, 00127$
                           0008C5  2009 	C$StateGame.c$239$2_2$229	= .
                                   2010 	.globl	C$StateGame.c$239$2_2$229
                                   2011 ;StateGame.c:239: fill_bar_idx(0, resto << 1);
      0008C5 23               [ 8] 2012 	inc	hl
      0008C6 5E               [ 8] 2013 	ld	e, (hl)
      0008C7 AF               [ 4] 2014 	xor	a, a
      0008C8 33               [ 8] 2015 	inc	sp
      0008C9 33               [ 8] 2016 	inc	sp
      0008CA C3r86r09         [16] 2017 	jp	_fill_bar_idx
      0008CD C3r83r09         [16] 2018 	jp	00132$
      0008D0                       2019 00127$:
                           0008D0  2020 	C$StateGame.c$240$1_2$226	= .
                                   2021 	.globl	C$StateGame.c$240$1_2$226
                                   2022 ;StateGame.c:240: }else if(countdown_unita < 2){
      0008D0 F8 00            [12] 2023 	ldhl	sp,	#0
      0008D2 7E               [ 8] 2024 	ld	a, (hl)
      0008D3 D6 02            [ 8] 2025 	sub	a, #0x02
      0008D5 30 13            [12] 2026 	jr	NC, 00124$
                           0008D7  2027 	C$StateGame.c$241$2_2$230	= .
                                   2028 	.globl	C$StateGame.c$241$2_2$230
                                   2029 ;StateGame.c:241: fill_bar_idx(0, 16);
      0008D7 1E 10            [ 8] 2030 	ld	e, #0x10
      0008D9 AF               [ 4] 2031 	xor	a, a
      0008DA CDr86r09         [24] 2032 	call	_fill_bar_idx
                           0008DD  2033 	C$StateGame.c$242$2_2$230	= .
                                   2034 	.globl	C$StateGame.c$242$2_2$230
                                   2035 ;StateGame.c:242: fill_bar_idx(1, resto << 1);
      0008DD F8 01            [12] 2036 	ldhl	sp,	#1
      0008DF 5E               [ 8] 2037 	ld	e, (hl)
      0008E0 3E 01            [ 8] 2038 	ld	a, #0x01
      0008E2 33               [ 8] 2039 	inc	sp
      0008E3 33               [ 8] 2040 	inc	sp
      0008E4 C3r86r09         [16] 2041 	jp	_fill_bar_idx
      0008E7 C3r83r09         [16] 2042 	jp	00132$
      0008EA                       2043 00124$:
                           0008EA  2044 	C$StateGame.c$243$1_2$226	= .
                                   2045 	.globl	C$StateGame.c$243$1_2$226
                                   2046 ;StateGame.c:243: }else if(countdown_unita < 3){
      0008EA F8 00            [12] 2047 	ldhl	sp,	#0
      0008EC 7E               [ 8] 2048 	ld	a, (hl)
      0008ED D6 03            [ 8] 2049 	sub	a, #0x03
      0008EF 30 19            [12] 2050 	jr	NC, 00121$
                           0008F1  2051 	C$StateGame.c$244$2_2$231	= .
                                   2052 	.globl	C$StateGame.c$244$2_2$231
                                   2053 ;StateGame.c:244: fill_bar_idx(0, 16);
      0008F1 1E 10            [ 8] 2054 	ld	e, #0x10
      0008F3 AF               [ 4] 2055 	xor	a, a
      0008F4 CDr86r09         [24] 2056 	call	_fill_bar_idx
                           0008F7  2057 	C$StateGame.c$245$2_2$231	= .
                                   2058 	.globl	C$StateGame.c$245$2_2$231
                                   2059 ;StateGame.c:245: fill_bar_idx(1, 16);
      0008F7 1E 10            [ 8] 2060 	ld	e, #0x10
      0008F9 3E 01            [ 8] 2061 	ld	a, #0x01
      0008FB CDr86r09         [24] 2062 	call	_fill_bar_idx
                           0008FE  2063 	C$StateGame.c$246$2_2$231	= .
                                   2064 	.globl	C$StateGame.c$246$2_2$231
                                   2065 ;StateGame.c:246: fill_bar_idx(2, resto << 1);
      0008FE F8 01            [12] 2066 	ldhl	sp,	#1
      000900 5E               [ 8] 2067 	ld	e, (hl)
      000901 3E 02            [ 8] 2068 	ld	a, #0x02
      000903 33               [ 8] 2069 	inc	sp
      000904 33               [ 8] 2070 	inc	sp
      000905 C3r86r09         [16] 2071 	jp	_fill_bar_idx
      000908 18 79            [12] 2072 	jr	00132$
      00090A                       2073 00121$:
                           00090A  2074 	C$StateGame.c$247$1_2$226	= .
                                   2075 	.globl	C$StateGame.c$247$1_2$226
                                   2076 ;StateGame.c:247: }else if(countdown_unita < 4){
      00090A F8 00            [12] 2077 	ldhl	sp,	#0
      00090C 7E               [ 8] 2078 	ld	a, (hl)
      00090D D6 04            [ 8] 2079 	sub	a, #0x04
      00090F 30 20            [12] 2080 	jr	NC, 00118$
                           000911  2081 	C$StateGame.c$248$2_2$232	= .
                                   2082 	.globl	C$StateGame.c$248$2_2$232
                                   2083 ;StateGame.c:248: fill_bar_idx(0, 16);
      000911 1E 10            [ 8] 2084 	ld	e, #0x10
      000913 AF               [ 4] 2085 	xor	a, a
      000914 CDr86r09         [24] 2086 	call	_fill_bar_idx
                           000917  2087 	C$StateGame.c$249$2_2$232	= .
                                   2088 	.globl	C$StateGame.c$249$2_2$232
                                   2089 ;StateGame.c:249: fill_bar_idx(1, 16);
      000917 1E 10            [ 8] 2090 	ld	e, #0x10
      000919 3E 01            [ 8] 2091 	ld	a, #0x01
      00091B CDr86r09         [24] 2092 	call	_fill_bar_idx
                           00091E  2093 	C$StateGame.c$250$2_2$232	= .
                                   2094 	.globl	C$StateGame.c$250$2_2$232
                                   2095 ;StateGame.c:250: fill_bar_idx(2, 16);
      00091E 1E 10            [ 8] 2096 	ld	e, #0x10
      000920 3E 02            [ 8] 2097 	ld	a, #0x02
      000922 CDr86r09         [24] 2098 	call	_fill_bar_idx
                           000925  2099 	C$StateGame.c$251$2_2$232	= .
                                   2100 	.globl	C$StateGame.c$251$2_2$232
                                   2101 ;StateGame.c:251: fill_bar_idx(3, resto << 1);
      000925 F8 01            [12] 2102 	ldhl	sp,	#1
      000927 5E               [ 8] 2103 	ld	e, (hl)
      000928 3E 03            [ 8] 2104 	ld	a, #0x03
      00092A 33               [ 8] 2105 	inc	sp
      00092B 33               [ 8] 2106 	inc	sp
      00092C C3r86r09         [16] 2107 	jp	_fill_bar_idx
      00092F 18 52            [12] 2108 	jr	00132$
      000931                       2109 00118$:
                           000931  2110 	C$StateGame.c$252$1_2$226	= .
                                   2111 	.globl	C$StateGame.c$252$1_2$226
                                   2112 ;StateGame.c:252: }else if(countdown_unita < 5){
      000931 F8 00            [12] 2113 	ldhl	sp,	#0
      000933 7E               [ 8] 2114 	ld	a, (hl)
      000934 D6 05            [ 8] 2115 	sub	a, #0x05
      000936 30 27            [12] 2116 	jr	NC, 00115$
                           000938  2117 	C$StateGame.c$253$2_2$233	= .
                                   2118 	.globl	C$StateGame.c$253$2_2$233
                                   2119 ;StateGame.c:253: fill_bar_idx(0, 16);
      000938 1E 10            [ 8] 2120 	ld	e, #0x10
      00093A AF               [ 4] 2121 	xor	a, a
      00093B CDr86r09         [24] 2122 	call	_fill_bar_idx
                           00093E  2123 	C$StateGame.c$254$2_2$233	= .
                                   2124 	.globl	C$StateGame.c$254$2_2$233
                                   2125 ;StateGame.c:254: fill_bar_idx(1, 16);
      00093E 1E 10            [ 8] 2126 	ld	e, #0x10
      000940 3E 01            [ 8] 2127 	ld	a, #0x01
      000942 CDr86r09         [24] 2128 	call	_fill_bar_idx
                           000945  2129 	C$StateGame.c$255$2_2$233	= .
                                   2130 	.globl	C$StateGame.c$255$2_2$233
                                   2131 ;StateGame.c:255: fill_bar_idx(2, 16);
      000945 1E 10            [ 8] 2132 	ld	e, #0x10
      000947 3E 02            [ 8] 2133 	ld	a, #0x02
      000949 CDr86r09         [24] 2134 	call	_fill_bar_idx
                           00094C  2135 	C$StateGame.c$256$2_2$233	= .
                                   2136 	.globl	C$StateGame.c$256$2_2$233
                                   2137 ;StateGame.c:256: fill_bar_idx(3, 16);
      00094C 1E 10            [ 8] 2138 	ld	e, #0x10
      00094E 3E 03            [ 8] 2139 	ld	a, #0x03
      000950 CDr86r09         [24] 2140 	call	_fill_bar_idx
                           000953  2141 	C$StateGame.c$257$2_2$233	= .
                                   2142 	.globl	C$StateGame.c$257$2_2$233
                                   2143 ;StateGame.c:257: fill_bar_idx(4, resto << 1);
      000953 F8 01            [12] 2144 	ldhl	sp,	#1
      000955 5E               [ 8] 2145 	ld	e, (hl)
      000956 3E 04            [ 8] 2146 	ld	a, #0x04
      000958 33               [ 8] 2147 	inc	sp
      000959 33               [ 8] 2148 	inc	sp
      00095A C3r86r09         [16] 2149 	jp	_fill_bar_idx
      00095D 18 24            [12] 2150 	jr	00132$
      00095F                       2151 00115$:
                           00095F  2152 	C$StateGame.c$259$2_2$234	= .
                                   2153 	.globl	C$StateGame.c$259$2_2$234
                                   2154 ;StateGame.c:259: fill_bar_idx(0, 16);
      00095F 1E 10            [ 8] 2155 	ld	e, #0x10
      000961 AF               [ 4] 2156 	xor	a, a
      000962 CDr86r09         [24] 2157 	call	_fill_bar_idx
                           000965  2158 	C$StateGame.c$260$2_2$234	= .
                                   2159 	.globl	C$StateGame.c$260$2_2$234
                                   2160 ;StateGame.c:260: fill_bar_idx(1, 16);
      000965 1E 10            [ 8] 2161 	ld	e, #0x10
      000967 3E 01            [ 8] 2162 	ld	a, #0x01
      000969 CDr86r09         [24] 2163 	call	_fill_bar_idx
                           00096C  2164 	C$StateGame.c$261$2_2$234	= .
                                   2165 	.globl	C$StateGame.c$261$2_2$234
                                   2166 ;StateGame.c:261: fill_bar_idx(2, 16);
      00096C 1E 10            [ 8] 2167 	ld	e, #0x10
      00096E 3E 02            [ 8] 2168 	ld	a, #0x02
      000970 CDr86r09         [24] 2169 	call	_fill_bar_idx
                           000973  2170 	C$StateGame.c$262$2_2$234	= .
                                   2171 	.globl	C$StateGame.c$262$2_2$234
                                   2172 ;StateGame.c:262: fill_bar_idx(3, 16);
      000973 1E 10            [ 8] 2173 	ld	e, #0x10
      000975 3E 03            [ 8] 2174 	ld	a, #0x03
      000977 CDr86r09         [24] 2175 	call	_fill_bar_idx
                           00097A  2176 	C$StateGame.c$263$2_2$234	= .
                                   2177 	.globl	C$StateGame.c$263$2_2$234
                                   2178 ;StateGame.c:263: fill_bar_idx(4, 16);
      00097A 1E 10            [ 8] 2179 	ld	e, #0x10
      00097C 3E 04            [ 8] 2180 	ld	a, #0x04
      00097E 33               [ 8] 2181 	inc	sp
      00097F 33               [ 8] 2182 	inc	sp
      000980 C3r86r09         [16] 2183 	jp	_fill_bar_idx
      000983                       2184 00132$:
                           000983  2185 	C$StateGame.c$265$1_2$218	= .
                                   2186 	.globl	C$StateGame.c$265$1_2$218
                                   2187 ;StateGame.c:265: }
      000983 33               [ 8] 2188 	inc	sp
      000984 33               [ 8] 2189 	inc	sp
                           000985  2190 	C$StateGame.c$265$1_2$218	= .
                                   2191 	.globl	C$StateGame.c$265$1_2$218
                           000985  2192 	XG$UpdateHUD$0$0	= .
                                   2193 	.globl	XG$UpdateHUD$0$0
      000985 C9               [16] 2194 	ret
                           000986  2195 	G$fill_bar_idx$0$0	= .
                                   2196 	.globl	G$fill_bar_idx$0$0
                           000986  2197 	C$StateGame.c$267$1_2$236	= .
                                   2198 	.globl	C$StateGame.c$267$1_2$236
                                   2199 ;StateGame.c:267: void fill_bar_idx(UINT8 i, UINT8 r){
                                   2200 ;	---------------------------------
                                   2201 ; Function fill_bar_idx
                                   2202 ; ---------------------------------
      000986                       2203 _fill_bar_idx::
      000986 6F               [ 4] 2204 	ld	l, a
                                   2205 ;	spillPairReg hl
                                   2206 ;	spillPairReg hl
                           000987  2207 	C$StateGame.c$268$1_0$236	= .
                                   2208 	.globl	C$StateGame.c$268$1_0$236
                                   2209 ;StateGame.c:268: UPDATE_HUD_TILE(14+i,0,45-r);
      000987 53               [ 4] 2210 	ld	d, e
      000988 3E 2D            [ 8] 2211 	ld	a, #0x2d
      00098A 92               [ 4] 2212 	sub	a, d
      00098B 4F               [ 4] 2213 	ld	c, a
      00098C 7D               [ 4] 2214 	ld	a, l
      00098D C6 0E            [ 8] 2215 	add	a, #0x0e
      00098F 5F               [ 4] 2216 	ld	e, a
      000990 D5               [16] 2217 	push	de
      000991 21 00 00         [12] 2218 	ld	hl, #0x0000
      000994 E5               [16] 2219 	push	hl
      000995 79               [ 4] 2220 	ld	a, c
      000996 F5               [16] 2221 	push	af
      000997 33               [ 8] 2222 	inc	sp
      000998 21r00r00         [12] 2223 	ld	hl, #_hud_map_offset
      00099B 2A               [ 8] 2224 	ld	a, (hl+)
      00099C 4F               [ 4] 2225 	ld	c, a
      00099D 46               [ 8] 2226 	ld	b, (hl)
      00099E C5               [16] 2227 	push	bc
      00099F AF               [ 4] 2228 	xor	a, a
      0009A0 F5               [16] 2229 	push	af
      0009A1 33               [ 8] 2230 	inc	sp
      0009A2 3E 01            [ 8] 2231 	ld	a, #0x01
      0009A4 CDr00r00         [24] 2232 	call	_UpdateMapTile
      0009A7 D1               [12] 2233 	pop	de
                           0009A8  2234 	C$StateGame.c$269$1_0$236	= .
                                   2235 	.globl	C$StateGame.c$269$1_0$236
                                   2236 ;StateGame.c:269: UPDATE_HUD_TILE(14+i,1,46-r);
      0009A8 3E 2E            [ 8] 2237 	ld	a, #0x2e
      0009AA 92               [ 4] 2238 	sub	a, d
      0009AB 01 00 00         [12] 2239 	ld	bc, #0x0000
      0009AE C5               [16] 2240 	push	bc
      0009AF F5               [16] 2241 	push	af
      0009B0 33               [ 8] 2242 	inc	sp
      0009B1 21r00r00         [12] 2243 	ld	hl, #_hud_map_offset
      0009B4 2A               [ 8] 2244 	ld	a, (hl+)
      0009B5 4F               [ 4] 2245 	ld	c, a
      0009B6 46               [ 8] 2246 	ld	b, (hl)
      0009B7 C5               [16] 2247 	push	bc
      0009B8 3E 01            [ 8] 2248 	ld	a, #0x01
      0009BA F5               [16] 2249 	push	af
      0009BB 33               [ 8] 2250 	inc	sp
      0009BC 3E 01            [ 8] 2251 	ld	a, #0x01
      0009BE CDr00r00         [24] 2252 	call	_UpdateMapTile
                           0009C1  2253 	C$StateGame.c$270$1_0$236	= .
                                   2254 	.globl	C$StateGame.c$270$1_0$236
                                   2255 ;StateGame.c:270: }
                           0009C1  2256 	C$StateGame.c$270$1_0$236	= .
                                   2257 	.globl	C$StateGame.c$270$1_0$236
                           0009C1  2258 	XG$fill_bar_idx$0$0	= .
                                   2259 	.globl	XG$fill_bar_idx$0$0
      0009C1 C9               [16] 2260 	ret
                                   2261 	.area _CODE_255
                                   2262 	.area _INITIALIZER
                           000000  2263 FStateGame$__xinit_update_hud$0_0$0 == .
      000000                       2264 __xinit__update_hud:
      000000 00                    2265 	.db #0x00	; 0
                           000001  2266 FStateGame$__xinit_move_camera_up$0_0$0 == .
      000001                       2267 __xinit__move_camera_up:
      000001 00                    2268 	.db #0x00	; 0
                           000002  2269 FStateGame$__xinit_move_camera_down$0_0$0 == .
      000002                       2270 __xinit__move_camera_down:
      000002 00                    2271 	.db #0x00	; 0
                           000003  2272 FStateGame$__xinit_move_camera_left$0_0$0 == .
      000003                       2273 __xinit__move_camera_left:
      000003 00                    2274 	.db #0x00	; 0
                           000004  2275 FStateGame$__xinit_move_camera_right$0_0$0 == .
      000004                       2276 __xinit__move_camera_right:
      000004 00                    2277 	.db #0x00	; 0
                           000005  2278 FStateGame$__xinit_move_camera_desty$0_0$0 == .
      000005                       2279 __xinit__move_camera_desty:
      000005 00 00                 2280 	.dw #0x0000
                           000007  2281 FStateGame$__xinit_move_camera_destx$0_0$0 == .
      000007                       2282 __xinit__move_camera_destx:
      000007 00 00                 2283 	.dw #0x0000
                                   2284 	.area _CABS (ABS)
