                                      1 ;--------------------------------------------------------
                                      2 ; File Created by SDCC : free open source ISO C Compiler 
                                      3 ; Version 4.3.2 #14228 (MINGW64)
                                      4 ;--------------------------------------------------------
                                      5 	.module UtilEnemy
                                      6 	.optsdcc -msm83
                                      7 	
                                      8 ;--------------------------------------------------------
                                      9 ; Public variables in this module
                                     10 ;--------------------------------------------------------
                                     11 	.globl _Update_UtilEnemy
                                     12 	.globl _Start_UtilEnemy
                                     13 	.globl b_skeleton_update_anim
                                     14 	.globl _skeleton_update_anim
                                     15 	.globl _TranslateSprite
                                     16 	.globl ___bank_UtilEnemy
                                     17 	.globl b_e_start
                                     18 	.globl _e_start
                                     19 	.globl b_e_configure
                                     20 	.globl _e_configure
                                     21 	.globl b_e_update_anim
                                     22 	.globl _e_update_anim
                                     23 	.globl b_e_change_state
                                     24 	.globl _e_change_state
                                     25 	.globl b_e_management
                                     26 	.globl _e_management
                                     27 	.globl b_e_check_tile_collision
                                     28 	.globl _e_check_tile_collision
                                     29 	.globl b_e_turn
                                     30 	.globl _e_turn
                                     31 	.globl b_e_destroy
                                     32 	.globl _e_destroy
                                     33 ;--------------------------------------------------------
                                     34 ; special function registers
                                     35 ;--------------------------------------------------------
                                     36 ;--------------------------------------------------------
                                     37 ; ram data
                                     38 ;--------------------------------------------------------
                                     39 	.area _DATA
                                     40 ;--------------------------------------------------------
                                     41 ; ram data
                                     42 ;--------------------------------------------------------
                                     43 	.area _INITIALIZED
                                     44 ;--------------------------------------------------------
                                     45 ; absolute external ram data
                                     46 ;--------------------------------------------------------
                                     47 	.area _DABS (ABS)
                                     48 ;--------------------------------------------------------
                                     49 ; global & static initialisations
                                     50 ;--------------------------------------------------------
                                     51 	.area _HOME
                                     52 	.area _GSINIT
                                     53 	.area _GSFINAL
                                     54 	.area _GSINIT
                                     55 ;--------------------------------------------------------
                                     56 ; Home
                                     57 ;--------------------------------------------------------
                                     58 	.area _HOME
                                     59 	.area _HOME
                                     60 ;--------------------------------------------------------
                                     61 ; code
                                     62 ;--------------------------------------------------------
                                     63 	.area _CODE_255
                           000000    64 	G$Start_UtilEnemy$0$0	= .
                                     65 	.globl	G$Start_UtilEnemy$0$0
                           000000    66 	C$UtilEnemy.c$33$0_0$190	= .
                                     67 	.globl	C$UtilEnemy.c$33$0_0$190
                                     68 ;UtilEnemy.c:33: void START(){
                                     69 ;	---------------------------------
                                     70 ; Function Start_UtilEnemy
                                     71 ; ---------------------------------
      000000                         72 _Start_UtilEnemy::
                           000000    73 	C$UtilEnemy.c$34$0_0$190	= .
                                     74 	.globl	C$UtilEnemy.c$34$0_0$190
                                     75 ;UtilEnemy.c:34: }
                           000000    76 	C$UtilEnemy.c$34$0_0$190	= .
                                     77 	.globl	C$UtilEnemy.c$34$0_0$190
                           000000    78 	XG$Start_UtilEnemy$0$0	= .
                                     79 	.globl	XG$Start_UtilEnemy$0$0
      000000 C9               [16]   80 	ret
                           0000FF    81 G$__bank_UtilEnemy$0_0$0 == 0x00ff
                           0000FF    82 ___bank_UtilEnemy	=	0x00ff
                           000001    83 	G$e_start$0$0	= .
                                     84 	.globl	G$e_start$0$0
                           000001    85 	C$UtilEnemy.c$36$0_0$192	= .
                                     86 	.globl	C$UtilEnemy.c$36$0_0$192
                                     87 ;UtilEnemy.c:36: void e_start(struct EnemyInfo* e_data, SPRITE_STATES new_state) BANKED{
                                     88 ;	---------------------------------
                                     89 ; Function e_start
                                     90 ; ---------------------------------
                           0000FF    91 	b_e_start	= 255
      000001                         92 _e_start::
                           000001    93 	C$UtilEnemy.c$37$1_0$192	= .
                                     94 	.globl	C$UtilEnemy.c$37$1_0$192
                                     95 ;UtilEnemy.c:37: e_data->e_state = new_state;
      000001 F8 06            [12]   96 	ldhl	sp,	#6
      000003 2A               [ 8]   97 	ld	a, (hl+)
      000004 4F               [ 4]   98 	ld	c, a
      000005 2A               [ 8]   99 	ld	a, (hl+)
      000006 47               [ 4]  100 	ld	b, a
      000007 7E               [ 8]  101 	ld	a, (hl)
      000008 02               [ 8]  102 	ld	(bc), a
                           000009   103 	C$UtilEnemy.c$38$1_0$192	= .
                                    104 	.globl	C$UtilEnemy.c$38$1_0$192
                                    105 ;UtilEnemy.c:38: e_data->frmskip_wait = e_data->frmskip;
      000009 21 05 00         [12]  106 	ld	hl, #0x0005
      00000C 09               [ 8]  107 	add	hl, bc
      00000D 5D               [ 4]  108 	ld	e, l
      00000E 54               [ 4]  109 	ld	d, h
      00000F 21 07 00         [12]  110 	ld	hl, #0x0007
      000012 09               [ 8]  111 	add	hl, bc
      000013 7E               [ 8]  112 	ld	a, (hl)
      000014 12               [ 8]  113 	ld	(de), a
                           000015   114 	C$UtilEnemy.c$39$1_0$192	= .
                                    115 	.globl	C$UtilEnemy.c$39$1_0$192
                                    116 ;UtilEnemy.c:39: e_data->vx = 0;
      000015 59               [ 4]  117 	ld	e, c
      000016 50               [ 4]  118 	ld	d, b
      000017 13               [ 8]  119 	inc	de
      000018 13               [ 8]  120 	inc	de
      000019 AF               [ 4]  121 	xor	a, a
      00001A 12               [ 8]  122 	ld	(de), a
                           00001B   123 	C$UtilEnemy.c$40$1_0$192	= .
                                    124 	.globl	C$UtilEnemy.c$40$1_0$192
                                    125 ;UtilEnemy.c:40: e_data->vy = 0;
      00001B 59               [ 4]  126 	ld	e, c
      00001C 50               [ 4]  127 	ld	d, b
      00001D 13               [ 8]  128 	inc	de
      00001E 13               [ 8]  129 	inc	de
      00001F 13               [ 8]  130 	inc	de
      000020 AF               [ 4]  131 	xor	a, a
      000021 12               [ 8]  132 	ld	(de), a
                           000022   133 	C$UtilEnemy.c$41$1_0$192	= .
                                    134 	.globl	C$UtilEnemy.c$41$1_0$192
                                    135 ;UtilEnemy.c:41: e_data->tile_collision = 0;
      000022 59               [ 4]  136 	ld	e, c
      000023 50               [ 4]  137 	ld	d, b
      000024 13               [ 8]  138 	inc	de
      000025 AF               [ 4]  139 	xor	a, a
      000026 12               [ 8]  140 	ld	(de), a
                           000027   141 	C$UtilEnemy.c$42$1_0$192	= .
                                    142 	.globl	C$UtilEnemy.c$42$1_0$192
                                    143 ;UtilEnemy.c:42: e_data->wait = 0;
      000027 21 04 00         [12]  144 	ld	hl, #0x0004
      00002A 09               [ 8]  145 	add	hl, bc
      00002B 36 00            [12]  146 	ld	(hl), #0x00
                           00002D   147 	C$UtilEnemy.c$43$1_0$192	= .
                                    148 	.globl	C$UtilEnemy.c$43$1_0$192
                                    149 ;UtilEnemy.c:43: e_data->e_configured = 0;
      00002D 21 06 00         [12]  150 	ld	hl, #0x0006
      000030 09               [ 8]  151 	add	hl, bc
      000031 36 00            [12]  152 	ld	(hl), #0x00
                           000033   153 	C$UtilEnemy.c$44$1_0$192	= .
                                    154 	.globl	C$UtilEnemy.c$44$1_0$192
                                    155 ;UtilEnemy.c:44: }
                           000033   156 	C$UtilEnemy.c$44$1_0$192	= .
                                    157 	.globl	C$UtilEnemy.c$44$1_0$192
                           000033   158 	XG$e_start$0$0	= .
                                    159 	.globl	XG$e_start$0$0
      000033 C9               [16]  160 	ret
                           000034   161 	G$e_configure$0$0	= .
                                    162 	.globl	G$e_configure$0$0
                           000034   163 	C$UtilEnemy.c$46$1_0$194	= .
                                    164 	.globl	C$UtilEnemy.c$46$1_0$194
                                    165 ;UtilEnemy.c:46: void e_configure(Sprite* s_enemy, UINT8 sprite_type) BANKED{
                                    166 ;	---------------------------------
                                    167 ; Function e_configure
                                    168 ; ---------------------------------
                           0000FF   169 	b_e_configure	= 255
      000034                        170 _e_configure::
                           000034   171 	C$UtilEnemy.c$47$1_0$194	= .
                                    172 	.globl	C$UtilEnemy.c$47$1_0$194
                                    173 ;UtilEnemy.c:47: e_update_anim(s_enemy, sprite_type);
      000034 F8 08            [12]  174 	ldhl	sp,	#8
      000036 3A               [ 8]  175 	ld	a, (hl-)
      000037 2B               [ 8]  176 	dec	hl
      000038 F5               [16]  177 	push	af
      000039 33               [ 8]  178 	inc	sp
      00003A 2A               [ 8]  179 	ld	a, (hl+)
      00003B 5F               [ 4]  180 	ld	e, a
      00003C 56               [ 8]  181 	ld	d, (hl)
      00003D D5               [16]  182 	push	de
      00003E 1Er00            [ 8]  183 	ld	e, #b_e_update_anim
      000040 21r54r00         [12]  184 	ld	hl, #_e_update_anim
      000043 CDr00r00         [24]  185 	call	___sdcc_bcall_ehl
      000046 E8 03            [16]  186 	add	sp, #3
                           000048   187 	C$UtilEnemy.c$48$1_1$195	= .
                                    188 	.globl	C$UtilEnemy.c$48$1_1$195
                                    189 ;UtilEnemy.c:48: struct EnemyInfo* e_data = (struct EnemyInfo*) s_enemy->custom_data;
      000048 F8 06            [12]  190 	ldhl	sp,	#6
      00004A 2A               [ 8]  191 	ld	a, (hl+)
      00004B 4F               [ 4]  192 	ld	c, a
      00004C 46               [ 8]  193 	ld	b, (hl)
                           00004D   194 	C$UtilEnemy.c$49$1_1$195	= .
                                    195 	.globl	C$UtilEnemy.c$49$1_1$195
                                    196 ;UtilEnemy.c:49: e_data->e_configured = 1;
      00004D 21 21 00         [12]  197 	ld	hl, #0x21
      000050 09               [ 8]  198 	add	hl,bc
      000051 36 01            [12]  199 	ld	(hl), #0x01
                           000053   200 	C$UtilEnemy.c$50$1_1$194	= .
                                    201 	.globl	C$UtilEnemy.c$50$1_1$194
                                    202 ;UtilEnemy.c:50: }
                           000053   203 	C$UtilEnemy.c$50$1_1$194	= .
                                    204 	.globl	C$UtilEnemy.c$50$1_1$194
                           000053   205 	XG$e_configure$0$0	= .
                                    206 	.globl	XG$e_configure$0$0
      000053 C9               [16]  207 	ret
                           000054   208 	G$e_update_anim$0$0	= .
                                    209 	.globl	G$e_update_anim$0$0
                           000054   210 	C$UtilEnemy.c$52$1_1$197	= .
                                    211 	.globl	C$UtilEnemy.c$52$1_1$197
                                    212 ;UtilEnemy.c:52: void e_update_anim(Sprite* s_enemy, UINT8 sprite_type) BANKED{
                                    213 ;	---------------------------------
                                    214 ; Function e_update_anim
                                    215 ; ---------------------------------
                           0000FF   216 	b_e_update_anim	= 255
      000054                        217 _e_update_anim::
                           000054   218 	C$UtilEnemy.c$53$1_0$197	= .
                                    219 	.globl	C$UtilEnemy.c$53$1_0$197
                                    220 ;UtilEnemy.c:53: struct EnemyInfo* e_data = (struct EnemyInfo*) s_enemy->custom_data;
      000054 F8 06            [12]  221 	ldhl	sp,	#6
      000056 2A               [ 8]  222 	ld	a, (hl+)
      000057 4F               [ 4]  223 	ld	c, a
      000058 46               [ 8]  224 	ld	b, (hl)
      000059 21 1B 00         [12]  225 	ld	hl, #0x001b
      00005C 09               [ 8]  226 	add	hl, bc
      00005D 5D               [ 4]  227 	ld	e, l
      00005E 54               [ 4]  228 	ld	d, h
                           00005F   229 	C$UtilEnemy.c$54$1_0$197	= .
                                    230 	.globl	C$UtilEnemy.c$54$1_0$197
                                    231 ;UtilEnemy.c:54: switch(sprite_type){
      00005F F8 08            [12]  232 	ldhl	sp,	#8
      000061 7E               [ 8]  233 	ld	a, (hl)
      000062 D6 02            [ 8]  234 	sub	a, #0x02
      000064 C0               [20]  235 	ret	NZ
                           000065   236 	C$UtilEnemy.c$56$2_0$198	= .
                                    237 	.globl	C$UtilEnemy.c$56$2_0$198
                                    238 ;UtilEnemy.c:56: skeleton_update_anim(s_enemy, e_data->e_state);
      000065 1A               [ 8]  239 	ld	a, (de)
      000066 F5               [16]  240 	push	af
      000067 33               [ 8]  241 	inc	sp
      000068 C5               [16]  242 	push	bc
      000069 1Er00            [ 8]  243 	ld	e, #b_skeleton_update_anim
      00006B 21r00r00         [12]  244 	ld	hl, #_skeleton_update_anim
      00006E CDr00r00         [24]  245 	call	___sdcc_bcall_ehl
      000071 E8 03            [16]  246 	add	sp, #3
                           000073   247 	C$UtilEnemy.c$58$1_0$197	= .
                                    248 	.globl	C$UtilEnemy.c$58$1_0$197
                                    249 ;UtilEnemy.c:58: }
                           000073   250 	C$UtilEnemy.c$59$1_0$197	= .
                                    251 	.globl	C$UtilEnemy.c$59$1_0$197
                                    252 ;UtilEnemy.c:59: }
                           000073   253 	C$UtilEnemy.c$59$1_0$197	= .
                                    254 	.globl	C$UtilEnemy.c$59$1_0$197
                           000073   255 	XG$e_update_anim$0$0	= .
                                    256 	.globl	XG$e_update_anim$0$0
      000073 C9               [16]  257 	ret
                           000074   258 	G$e_change_state$0$0	= .
                                    259 	.globl	G$e_change_state$0$0
                           000074   260 	C$UtilEnemy.c$61$1_0$200	= .
                                    261 	.globl	C$UtilEnemy.c$61$1_0$200
                                    262 ;UtilEnemy.c:61: void e_change_state(Sprite* s_enemy, SPRITE_STATES new_state, UINT8 e_sprite_type) BANKED{
                                    263 ;	---------------------------------
                                    264 ; Function e_change_state
                                    265 ; ---------------------------------
                           0000FF   266 	b_e_change_state	= 255
      000074                        267 _e_change_state::
      000074 E8 F9            [16]  268 	add	sp, #-7
                           000076   269 	C$UtilEnemy.c$62$1_0$200	= .
                                    270 	.globl	C$UtilEnemy.c$62$1_0$200
                                    271 ;UtilEnemy.c:62: struct EnemyInfo* e_data = (struct EnemyInfo*) s_enemy->custom_data;
      000076 F8 0D            [12]  272 	ldhl	sp,	#13
      000078 7E               [ 8]  273 	ld	a, (hl)
      000079 F8 00            [12]  274 	ldhl	sp,	#0
      00007B 77               [ 8]  275 	ld	(hl), a
      00007C F8 0E            [12]  276 	ldhl	sp,	#14
      00007E 7E               [ 8]  277 	ld	a, (hl)
      00007F F8 01            [12]  278 	ldhl	sp,	#1
      000081 77               [ 8]  279 	ld	(hl), a
      000082 D1               [12]  280 	pop	de
      000083 D5               [16]  281 	push	de
      000084 21 1B 00         [12]  282 	ld	hl, #0x001b
      000087 19               [ 8]  283 	add	hl, de
      000088 4D               [ 4]  284 	ld	c, l
      000089 7C               [ 4]  285 	ld	a, h
      00008A F8 02            [12]  286 	ldhl	sp,	#2
      00008C 71               [ 8]  287 	ld	(hl), c
      00008D 23               [ 8]  288 	inc	hl
                           00008E   289 	C$UtilEnemy.c$63$1_0$200	= .
                                    290 	.globl	C$UtilEnemy.c$63$1_0$200
                                    291 ;UtilEnemy.c:63: if(e_data->e_state == new_state){
      00008E 32               [ 8]  292 	ld	(hl-), a
      00008F 2A               [ 8]  293 	ld	a, (hl+)
      000090 5F               [ 4]  294 	ld	e, a
      000091 56               [ 8]  295 	ld	d, (hl)
      000092 1A               [ 8]  296 	ld	a, (de)
      000093 4F               [ 4]  297 	ld	c, a
      000094 F8 0F            [12]  298 	ldhl	sp,	#15
      000096 7E               [ 8]  299 	ld	a, (hl)
      000097 91               [ 4]  300 	sub	a, c
      000098 CArACr01         [16]  301 	jp	Z,00122$
                           00009B   302 	C$UtilEnemy.c$64$2_0$201	= .
                                    303 	.globl	C$UtilEnemy.c$64$2_0$201
                                    304 ;UtilEnemy.c:64: return;
      00009B 18 00            [12]  305 	jr	00102$
      00009D                        306 00102$:
                           00009D   307 	C$UtilEnemy.c$66$1_0$200	= .
                                    308 	.globl	C$UtilEnemy.c$66$1_0$200
                                    309 ;UtilEnemy.c:66: switch(new_state){
      00009D 3E 0C            [ 8]  310 	ld	a, #0x0c
      00009F F8 0F            [12]  311 	ldhl	sp,	#15
      0000A1 96               [ 8]  312 	sub	a, (hl)
      0000A2 DAr58r01         [16]  313 	jp	C, 00116$
                           0000A5   314 	C$UtilEnemy.c$67$1_0$200	= .
                                    315 	.globl	C$UtilEnemy.c$67$1_0$200
                                    316 ;UtilEnemy.c:67: case WALK_DOWN: e_data->wait = 0; e_data->vx = 0; e_data->vy = 1;break;
      0000A5 F8 02            [12]  317 	ldhl	sp,#2
      0000A7 2A               [ 8]  318 	ld	a, (hl+)
      0000A8 5F               [ 4]  319 	ld	e, a
      0000A9 56               [ 8]  320 	ld	d, (hl)
      0000AA 21 04 00         [12]  321 	ld	hl, #0x0004
      0000AD 19               [ 8]  322 	add	hl, de
      0000AE 4D               [ 4]  323 	ld	c, l
      0000AF 44               [ 4]  324 	ld	b, h
      0000B0 F8 02            [12]  325 	ldhl	sp,	#2
      0000B2 2A               [ 8]  326 	ld	a, (hl+)
      0000B3 5F               [ 4]  327 	ld	e, a
      0000B4 3A               [ 8]  328 	ld	a, (hl-)
      0000B5 57               [ 4]  329 	ld	d, a
      0000B6 13               [ 8]  330 	inc	de
      0000B7 13               [ 8]  331 	inc	de
      0000B8 D5               [16]  332 	push	de
      0000B9 2A               [ 8]  333 	ld	a, (hl+)
      0000BA 5F               [ 4]  334 	ld	e, a
      0000BB 56               [ 8]  335 	ld	d, (hl)
      0000BC 21 03 00         [12]  336 	ld	hl, #0x0003
      0000BF 19               [ 8]  337 	add	hl, de
      0000C0 D1               [12]  338 	pop	de
      0000C1 E5               [16]  339 	push	hl
      0000C2 7D               [ 4]  340 	ld	a, l
      0000C3 F8 06            [12]  341 	ldhl	sp,	#6
      0000C5 77               [ 8]  342 	ld	(hl), a
      0000C6 E1               [12]  343 	pop	hl
      0000C7 7C               [ 4]  344 	ld	a, h
      0000C8 F8 05            [12]  345 	ldhl	sp,	#5
      0000CA 77               [ 8]  346 	ld	(hl), a
                           0000CB   347 	C$UtilEnemy.c$72$1_0$200	= .
                                    348 	.globl	C$UtilEnemy.c$72$1_0$200
                                    349 ;UtilEnemy.c:72: switch(e_sprite_type){
      0000CB F8 10            [12]  350 	ldhl	sp,	#16
      0000CD 7E               [ 8]  351 	ld	a, (hl)
      0000CE D6 02            [ 8]  352 	sub	a, #0x02
      0000D0 3E 01            [ 8]  353 	ld	a, #0x01
      0000D2 28 01            [12]  354 	jr	Z, 00169$
      0000D4 AF               [ 4]  355 	xor	a, a
      0000D5                        356 00169$:
      0000D5 F8 06            [12]  357 	ldhl	sp,	#6
      0000D7 77               [ 8]  358 	ld	(hl), a
                           0000D8   359 	C$UtilEnemy.c$66$1_0$200	= .
                                    360 	.globl	C$UtilEnemy.c$66$1_0$200
                                    361 ;UtilEnemy.c:66: switch(new_state){
      0000D8 D5               [16]  362 	push	de
      0000D9 F8 11            [12]  363 	ldhl	sp,	#17
      0000DB 5E               [ 8]  364 	ld	e, (hl)
      0000DC 16 00            [ 8]  365 	ld	d, #0x00
      0000DE 21rE6r00         [12]  366 	ld	hl, #00170$
      0000E1 19               [ 8]  367 	add	hl, de
      0000E2 19               [ 8]  368 	add	hl, de
      0000E3 19               [ 8]  369 	add	hl, de
      0000E4 D1               [12]  370 	pop	de
      0000E5 E9               [ 4]  371 	jp	(hl)
      0000E6                        372 00170$:
      0000E6 C3r58r01         [16]  373 	jp	00116$
      0000E9 C3r58r01         [16]  374 	jp	00116$
      0000EC C3r43r01         [16]  375 	jp	00110$
      0000EF C3r43r01         [16]  376 	jp	00110$
      0000F2 C3r43r01         [16]  377 	jp	00110$
      0000F5 C3r43r01         [16]  378 	jp	00110$
      0000F8 C3r35r01         [16]  379 	jp	00106$
      0000FB C3r27r01         [16]  380 	jp	00105$
      0000FE C3r1Ar01         [16]  381 	jp	00104$
      000101 C3r0Dr01         [16]  382 	jp	00103$
      000104 C3r58r01         [16]  383 	jp	00116$
      000107 C3r58r01         [16]  384 	jp	00116$
      00010A C3r4Er01         [16]  385 	jp	00113$
                           00010D   386 	C$UtilEnemy.c$67$2_0$202	= .
                                    387 	.globl	C$UtilEnemy.c$67$2_0$202
                                    388 ;UtilEnemy.c:67: case WALK_DOWN: e_data->wait = 0; e_data->vx = 0; e_data->vy = 1;break;
      00010D                        389 00103$:
      00010D AF               [ 4]  390 	xor	a, a
      00010E 02               [ 8]  391 	ld	(bc), a
      00010F AF               [ 4]  392 	xor	a, a
      000110 12               [ 8]  393 	ld	(de), a
      000111 F8 04            [12]  394 	ldhl	sp,	#4
      000113 2A               [ 8]  395 	ld	a,	(hl+)
      000114 66               [ 8]  396 	ld	h, (hl)
      000115 6F               [ 4]  397 	ld	l, a
      000116 36 01            [12]  398 	ld	(hl), #0x01
      000118 18 3E            [12]  399 	jr	00116$
                           00011A   400 	C$UtilEnemy.c$68$2_0$202	= .
                                    401 	.globl	C$UtilEnemy.c$68$2_0$202
                                    402 ;UtilEnemy.c:68: case WALK_UP: e_data->wait = 0; e_data->vx = 0; e_data->vy = -1;break;
      00011A                        403 00104$:
      00011A AF               [ 4]  404 	xor	a, a
      00011B 02               [ 8]  405 	ld	(bc), a
      00011C AF               [ 4]  406 	xor	a, a
      00011D 12               [ 8]  407 	ld	(de), a
      00011E F8 04            [12]  408 	ldhl	sp,	#4
      000120 2A               [ 8]  409 	ld	a,	(hl+)
      000121 66               [ 8]  410 	ld	h, (hl)
      000122 6F               [ 4]  411 	ld	l, a
      000123 36 FF            [12]  412 	ld	(hl), #0xff
      000125 18 31            [12]  413 	jr	00116$
                           000127   414 	C$UtilEnemy.c$69$2_0$202	= .
                                    415 	.globl	C$UtilEnemy.c$69$2_0$202
                                    416 ;UtilEnemy.c:69: case WALK_RIGHT: e_data->wait = 0; e_data->vx = 1; e_data->vy = 0; break;
      000127                        417 00105$:
      000127 AF               [ 4]  418 	xor	a, a
      000128 02               [ 8]  419 	ld	(bc), a
      000129 3E 01            [ 8]  420 	ld	a, #0x01
      00012B 12               [ 8]  421 	ld	(de), a
      00012C F8 04            [12]  422 	ldhl	sp,	#4
      00012E 2A               [ 8]  423 	ld	a,	(hl+)
      00012F 66               [ 8]  424 	ld	h, (hl)
      000130 6F               [ 4]  425 	ld	l, a
      000131 36 00            [12]  426 	ld	(hl), #0x00
      000133 18 23            [12]  427 	jr	00116$
                           000135   428 	C$UtilEnemy.c$70$2_0$202	= .
                                    429 	.globl	C$UtilEnemy.c$70$2_0$202
                                    430 ;UtilEnemy.c:70: case WALK_LEFT: e_data->wait = 0; e_data->vx = -1; e_data->vy = 0; break;
      000135                        431 00106$:
      000135 AF               [ 4]  432 	xor	a, a
      000136 02               [ 8]  433 	ld	(bc), a
      000137 3E FF            [ 8]  434 	ld	a, #0xff
      000139 12               [ 8]  435 	ld	(de), a
      00013A F8 04            [12]  436 	ldhl	sp,	#4
      00013C 2A               [ 8]  437 	ld	a,	(hl+)
      00013D 66               [ 8]  438 	ld	h, (hl)
      00013E 6F               [ 4]  439 	ld	l, a
      00013F 36 00            [12]  440 	ld	(hl), #0x00
      000141 18 15            [12]  441 	jr	00116$
                           000143   442 	C$UtilEnemy.c$71$2_0$202	= .
                                    443 	.globl	C$UtilEnemy.c$71$2_0$202
                                    444 ;UtilEnemy.c:71: case IDLE_DOWN: case IDLE_UP: case IDLE_LEFT: case IDLE_RIGHT:
      000143                        445 00110$:
                           000143   446 	C$UtilEnemy.c$72$2_0$202	= .
                                    447 	.globl	C$UtilEnemy.c$72$2_0$202
                                    448 ;UtilEnemy.c:72: switch(e_sprite_type){
      000143 F8 06            [12]  449 	ldhl	sp,	#6
      000145 7E               [ 8]  450 	ld	a, (hl)
      000146 B7               [ 4]  451 	or	a, a
      000147 28 0F            [12]  452 	jr	Z, 00116$
                           000149   453 	C$UtilEnemy.c$74$3_0$203	= .
                                    454 	.globl	C$UtilEnemy.c$74$3_0$203
                                    455 ;UtilEnemy.c:74: e_data->wait = 160u;
      000149 3E A0            [ 8]  456 	ld	a, #0xa0
      00014B 02               [ 8]  457 	ld	(bc), a
                           00014C   458 	C$UtilEnemy.c$77$2_0$202	= .
                                    459 	.globl	C$UtilEnemy.c$77$2_0$202
                                    460 ;UtilEnemy.c:77: break;
      00014C 18 0A            [12]  461 	jr	00116$
                           00014E   462 	C$UtilEnemy.c$78$2_0$202	= .
                                    463 	.globl	C$UtilEnemy.c$78$2_0$202
                                    464 ;UtilEnemy.c:78: case HIT:
      00014E                        465 00113$:
                           00014E   466 	C$UtilEnemy.c$79$2_0$202	= .
                                    467 	.globl	C$UtilEnemy.c$79$2_0$202
                                    468 ;UtilEnemy.c:79: switch(e_sprite_type){
      00014E F8 06            [12]  469 	ldhl	sp,	#6
      000150 7E               [ 8]  470 	ld	a, (hl)
      000151 B7               [ 4]  471 	or	a, a
      000152 28 04            [12]  472 	jr	Z, 00116$
                           000154   473 	C$UtilEnemy.c$81$3_0$204	= .
                                    474 	.globl	C$UtilEnemy.c$81$3_0$204
                                    475 ;UtilEnemy.c:81: e_data->wait = orpheus_wait;
      000154 FAr00r00         [16]  476 	ld	a, (#_orpheus_wait)
      000157 02               [ 8]  477 	ld	(bc), a
                           000158   478 	C$UtilEnemy.c$85$1_0$200	= .
                                    479 	.globl	C$UtilEnemy.c$85$1_0$200
                                    480 ;UtilEnemy.c:85: }
      000158                        481 00116$:
                           000158   482 	C$UtilEnemy.c$86$1_0$200	= .
                                    483 	.globl	C$UtilEnemy.c$86$1_0$200
                                    484 ;UtilEnemy.c:86: switch(e_data->e_state){
      000158 F8 02            [12]  485 	ldhl	sp,#2
      00015A 2A               [ 8]  486 	ld	a, (hl+)
      00015B 5F               [ 4]  487 	ld	e, a
      00015C 56               [ 8]  488 	ld	d, (hl)
      00015D 1A               [ 8]  489 	ld	a, (de)
      00015E B7               [ 4]  490 	or	a, a
      00015F 20 2F            [12]  491 	jr	NZ, 00121$
                           000161   492 	C$UtilEnemy.c$88$2_0$205	= .
                                    493 	.globl	C$UtilEnemy.c$88$2_0$205
                                    494 ;UtilEnemy.c:88: if(s_orpheus->x > s_enemy->x){new_state = IDLE_RIGHT;}
      000161 21r00r00         [12]  495 	ld	hl, #_s_orpheus
      000164 2A               [ 8]  496 	ld	a, (hl+)
      000165 4F               [ 4]  497 	ld	c, a
      000166 46               [ 8]  498 	ld	b, (hl)
      000167 21 0C 00         [12]  499 	ld	hl, #0x000c
      00016A 09               [ 8]  500 	add	hl, bc
      00016B 5D               [ 4]  501 	ld	e, l
      00016C 54               [ 4]  502 	ld	d, h
      00016D 1A               [ 8]  503 	ld	a, (de)
      00016E F8 05            [12]  504 	ldhl	sp,	#5
      000170 22               [ 8]  505 	ld	(hl+), a
      000171 13               [ 8]  506 	inc	de
      000172 1A               [ 8]  507 	ld	a, (de)
      000173 77               [ 8]  508 	ld	(hl), a
      000174 D1               [12]  509 	pop	de
      000175 D5               [16]  510 	push	de
      000176 21 0C 00         [12]  511 	ld	hl, #0x000c
      000179 19               [ 8]  512 	add	hl, de
      00017A 2A               [ 8]  513 	ld	a, (hl+)
      00017B 4F               [ 4]  514 	ld	c, a
      00017C 46               [ 8]  515 	ld	b, (hl)
      00017D F8 05            [12]  516 	ldhl	sp,	#5
      00017F 79               [ 4]  517 	ld	a, c
      000180 96               [ 8]  518 	sub	a, (hl)
      000181 23               [ 8]  519 	inc	hl
      000182 78               [ 4]  520 	ld	a, b
      000183 9E               [ 8]  521 	sbc	a, (hl)
      000184 30 06            [12]  522 	jr	NC, 00119$
      000186 F8 0F            [12]  523 	ldhl	sp,	#15
      000188 36 05            [12]  524 	ld	(hl), #0x05
      00018A 18 04            [12]  525 	jr	00121$
      00018C                        526 00119$:
                           00018C   527 	C$UtilEnemy.c$89$3_0$207	= .
                                    528 	.globl	C$UtilEnemy.c$89$3_0$207
                                    529 ;UtilEnemy.c:89: else{new_state = IDLE_LEFT;}
      00018C F8 0F            [12]  530 	ldhl	sp,	#15
      00018E 36 04            [12]  531 	ld	(hl), #0x04
                           000190   532 	C$UtilEnemy.c$91$1_0$200	= .
                                    533 	.globl	C$UtilEnemy.c$91$1_0$200
                                    534 ;UtilEnemy.c:91: }
      000190                        535 00121$:
                           000190   536 	C$UtilEnemy.c$92$1_0$200	= .
                                    537 	.globl	C$UtilEnemy.c$92$1_0$200
                                    538 ;UtilEnemy.c:92: e_data->e_state = new_state;
      000190 F8 02            [12]  539 	ldhl	sp,#2
      000192 2A               [ 8]  540 	ld	a, (hl+)
      000193 5F               [ 4]  541 	ld	e, a
      000194 56               [ 8]  542 	ld	d, (hl)
      000195 F8 0F            [12]  543 	ldhl	sp,	#15
                           000197   544 	C$UtilEnemy.c$93$1_0$200	= .
                                    545 	.globl	C$UtilEnemy.c$93$1_0$200
                                    546 ;UtilEnemy.c:93: e_update_anim(s_enemy, e_sprite_type);
      000197 2A               [ 8]  547 	ld	a, (hl+)
      000198 12               [ 8]  548 	ld	(de), a
      000199 7E               [ 8]  549 	ld	a, (hl)
      00019A F5               [16]  550 	push	af
      00019B 33               [ 8]  551 	inc	sp
      00019C F8 01            [12]  552 	ldhl	sp,	#1
      00019E 2A               [ 8]  553 	ld	a, (hl+)
      00019F 5F               [ 4]  554 	ld	e, a
      0001A0 56               [ 8]  555 	ld	d, (hl)
      0001A1 D5               [16]  556 	push	de
      0001A2 1Er00            [ 8]  557 	ld	e, #b_e_update_anim
      0001A4 21r54r00         [12]  558 	ld	hl, #_e_update_anim
      0001A7 CDr00r00         [24]  559 	call	___sdcc_bcall_ehl
      0001AA E8 03            [16]  560 	add	sp, #3
      0001AC                        561 00122$:
                           0001AC   562 	C$UtilEnemy.c$94$1_0$200	= .
                                    563 	.globl	C$UtilEnemy.c$94$1_0$200
                                    564 ;UtilEnemy.c:94: }
      0001AC E8 07            [16]  565 	add	sp, #7
                           0001AE   566 	C$UtilEnemy.c$94$1_0$200	= .
                                    567 	.globl	C$UtilEnemy.c$94$1_0$200
                           0001AE   568 	XG$e_change_state$0$0	= .
                                    569 	.globl	XG$e_change_state$0$0
      0001AE C9               [16]  570 	ret
                           0001AF   571 	G$e_management$0$0	= .
                                    572 	.globl	G$e_management$0$0
                           0001AF   573 	C$UtilEnemy.c$96$1_0$209	= .
                                    574 	.globl	C$UtilEnemy.c$96$1_0$209
                                    575 ;UtilEnemy.c:96: void e_management(Sprite* s_enemy) BANKED{
                                    576 ;	---------------------------------
                                    577 ; Function e_management
                                    578 ; ---------------------------------
                           0000FF   579 	b_e_management	= 255
      0001AF                        580 _e_management::
      0001AF E8 E9            [16]  581 	add	sp, #-23
                           0001B1   582 	C$UtilEnemy.c$97$1_0$209	= .
                                    583 	.globl	C$UtilEnemy.c$97$1_0$209
                                    584 ;UtilEnemy.c:97: struct EnemyInfo* e_data = (struct EnemyInfo*) s_enemy->custom_data;
      0001B1 F8 1D            [12]  585 	ldhl	sp,	#29
      0001B3 7E               [ 8]  586 	ld	a, (hl)
      0001B4 F8 00            [12]  587 	ldhl	sp,	#0
      0001B6 77               [ 8]  588 	ld	(hl), a
      0001B7 F8 1E            [12]  589 	ldhl	sp,	#30
      0001B9 7E               [ 8]  590 	ld	a, (hl)
      0001BA F8 01            [12]  591 	ldhl	sp,	#1
      0001BC 77               [ 8]  592 	ld	(hl), a
      0001BD D1               [12]  593 	pop	de
      0001BE D5               [16]  594 	push	de
      0001BF 21 1B 00         [12]  595 	ld	hl, #0x001b
      0001C2 19               [ 8]  596 	add	hl, de
      0001C3 4D               [ 4]  597 	ld	c, l
      0001C4 7C               [ 4]  598 	ld	a, h
      0001C5 F8 02            [12]  599 	ldhl	sp,	#2
      0001C7 71               [ 8]  600 	ld	(hl), c
      0001C8 23               [ 8]  601 	inc	hl
      0001C9 77               [ 8]  602 	ld	(hl), a
                           0001CA   603 	C$UtilEnemy.c$98$1_0$209	= .
                                    604 	.globl	C$UtilEnemy.c$98$1_0$209
                                    605 ;UtilEnemy.c:98: UINT8 e_sprite_type = s_enemy->type;
      0001CA D1               [12]  606 	pop	de
      0001CB D5               [16]  607 	push	de
      0001CC 21 13 00         [12]  608 	ld	hl, #0x0013
      0001CF 19               [ 8]  609 	add	hl, de
      0001D0 4D               [ 4]  610 	ld	c, l
      0001D1 44               [ 4]  611 	ld	b, h
      0001D2 0A               [ 8]  612 	ld	a, (bc)
      0001D3 F8 04            [12]  613 	ldhl	sp,	#4
                           0001D5   614 	C$UtilEnemy.c$99$1_0$209	= .
                                    615 	.globl	C$UtilEnemy.c$99$1_0$209
                                    616 ;UtilEnemy.c:99: if(e_data->frmskip_wait > 0){
      0001D5 32               [ 8]  617 	ld	(hl-), a
      0001D6 2B               [ 8]  618 	dec	hl
      0001D7 2A               [ 8]  619 	ld	a, (hl+)
      0001D8 5F               [ 4]  620 	ld	e, a
      0001D9 56               [ 8]  621 	ld	d, (hl)
      0001DA 21 05 00         [12]  622 	ld	hl, #0x0005
      0001DD 19               [ 8]  623 	add	hl, de
      0001DE E5               [16]  624 	push	hl
      0001DF 7D               [ 4]  625 	ld	a, l
      0001E0 F8 07            [12]  626 	ldhl	sp,	#7
      0001E2 77               [ 8]  627 	ld	(hl), a
      0001E3 E1               [12]  628 	pop	hl
      0001E4 7C               [ 4]  629 	ld	a, h
      0001E5 F8 06            [12]  630 	ldhl	sp,	#6
      0001E7 32               [ 8]  631 	ld	(hl-), a
      0001E8 2A               [ 8]  632 	ld	a, (hl+)
      0001E9 5F               [ 4]  633 	ld	e, a
      0001EA 56               [ 8]  634 	ld	d, (hl)
      0001EB 1A               [ 8]  635 	ld	a, (de)
      0001EC B7               [ 4]  636 	or	a, a
      0001ED 28 06            [12]  637 	jr	Z, 00102$
                           0001EF   638 	C$UtilEnemy.c$100$2_0$210	= .
                                    639 	.globl	C$UtilEnemy.c$100$2_0$210
                                    640 ;UtilEnemy.c:100: e_data->frmskip_wait--;
      0001EF 4F               [ 4]  641 	ld	c, a
      0001F0 0D               [ 4]  642 	dec	c
      0001F1 3A               [ 8]  643 	ld	a, (hl-)
      0001F2 6E               [ 8]  644 	ld	l, (hl)
      0001F3 67               [ 4]  645 	ld	h, a
      0001F4 71               [ 8]  646 	ld	(hl), c
      0001F5                        647 00102$:
                           0001F5   648 	C$UtilEnemy.c$102$1_0$209	= .
                                    649 	.globl	C$UtilEnemy.c$102$1_0$209
                                    650 ;UtilEnemy.c:102: if(e_data->e_state != WALK_DOWN && e_data->e_state != WALK_UP && 
      0001F5 F8 02            [12]  651 	ldhl	sp,#2
      0001F7 2A               [ 8]  652 	ld	a, (hl+)
      0001F8 5F               [ 4]  653 	ld	e, a
                           0001F9   654 	C$UtilEnemy.c$105$1_0$209	= .
                                    655 	.globl	C$UtilEnemy.c$105$1_0$209
                                    656 ;UtilEnemy.c:105: if(e_data->wait > 0){
      0001F9 3A               [ 8]  657 	ld	a, (hl-)
      0001FA 57               [ 4]  658 	ld	d, a
      0001FB 1A               [ 8]  659 	ld	a, (de)
      0001FC 4F               [ 4]  660 	ld	c, a
      0001FD 2A               [ 8]  661 	ld	a, (hl+)
      0001FE 5F               [ 4]  662 	ld	e, a
      0001FF 56               [ 8]  663 	ld	d, (hl)
      000200 21 04 00         [12]  664 	ld	hl, #0x0004
      000203 19               [ 8]  665 	add	hl, de
      000204 E5               [16]  666 	push	hl
      000205 7D               [ 4]  667 	ld	a, l
      000206 F8 09            [12]  668 	ldhl	sp,	#9
      000208 77               [ 8]  669 	ld	(hl), a
      000209 E1               [12]  670 	pop	hl
      00020A 7C               [ 4]  671 	ld	a, h
      00020B F8 08            [12]  672 	ldhl	sp,	#8
      00020D 77               [ 8]  673 	ld	(hl), a
                           00020E   674 	C$UtilEnemy.c$102$1_0$209	= .
                                    675 	.globl	C$UtilEnemy.c$102$1_0$209
                                    676 ;UtilEnemy.c:102: if(e_data->e_state != WALK_DOWN && e_data->e_state != WALK_UP && 
      00020E 79               [ 4]  677 	ld	a,c
      00020F FE 09            [ 8]  678 	cp	a,#0x09
      000211 28 35            [12]  679 	jr	Z, 00107$
                           000213   680 	C$UtilEnemy.c$103$1_0$209	= .
                                    681 	.globl	C$UtilEnemy.c$103$1_0$209
                                    682 ;UtilEnemy.c:103: e_data->e_state != WALK_LEFT && e_data->e_state != WALK_RIGHT &&
      000213 FE 08            [ 8]  683 	cp	a,#0x08
      000215 28 31            [12]  684 	jr	Z, 00107$
      000217 FE 06            [ 8]  685 	cp	a,#0x06
      000219 28 2D            [12]  686 	jr	Z, 00107$
                           00021B   687 	C$UtilEnemy.c$104$1_0$209	= .
                                    688 	.globl	C$UtilEnemy.c$104$1_0$209
                                    689 ;UtilEnemy.c:104: e_data->e_state != HIT){
      00021B FE 07            [ 8]  690 	cp	a,#0x07
      00021D 28 29            [12]  691 	jr	Z, 00107$
      00021F D6 0C            [ 8]  692 	sub	a, #0x0c
      000221 28 25            [12]  693 	jr	Z, 00107$
                           000223   694 	C$UtilEnemy.c$105$2_0$211	= .
                                    695 	.globl	C$UtilEnemy.c$105$2_0$211
                                    696 ;UtilEnemy.c:105: if(e_data->wait > 0){
      000223 2B               [ 8]  697 	dec	hl
      000224 2A               [ 8]  698 	ld	a, (hl+)
      000225 5F               [ 4]  699 	ld	e, a
      000226 56               [ 8]  700 	ld	d, (hl)
      000227 1A               [ 8]  701 	ld	a, (de)
      000228 B7               [ 4]  702 	or	a, a
      000229 28 08            [12]  703 	jr	Z, 00104$
                           00022B   704 	C$UtilEnemy.c$106$3_0$212	= .
                                    705 	.globl	C$UtilEnemy.c$106$3_0$212
                                    706 ;UtilEnemy.c:106: e_data->wait--;
      00022B 4F               [ 4]  707 	ld	c, a
      00022C 0D               [ 4]  708 	dec	c
      00022D 3A               [ 8]  709 	ld	a, (hl-)
      00022E 6E               [ 8]  710 	ld	l, (hl)
      00022F 67               [ 4]  711 	ld	h, a
      000230 71               [ 8]  712 	ld	(hl), c
      000231 18 15            [12]  713 	jr	00107$
      000233                        714 00104$:
                           000233   715 	C$UtilEnemy.c$108$3_0$213	= .
                                    716 	.globl	C$UtilEnemy.c$108$3_0$213
                                    717 ;UtilEnemy.c:108: e_turn(s_enemy, e_sprite_type);
      000233 F8 04            [12]  718 	ldhl	sp,	#4
      000235 7E               [ 8]  719 	ld	a, (hl)
      000236 F5               [16]  720 	push	af
      000237 33               [ 8]  721 	inc	sp
      000238 F8 01            [12]  722 	ldhl	sp,	#1
      00023A 5E               [ 8]  723 	ld	e, (hl)
      00023B 23               [ 8]  724 	inc	hl
      00023C 56               [ 8]  725 	ld	d, (hl)
      00023D D5               [16]  726 	push	de
      00023E 1Er00            [ 8]  727 	ld	e, #b_e_turn
      000240 21rB5r05         [12]  728 	ld	hl, #_e_turn
      000243 CDr00r00         [24]  729 	call	___sdcc_bcall_ehl
      000246 E8 03            [16]  730 	add	sp, #3
      000248                        731 00107$:
                           000248   732 	C$UtilEnemy.c$111$1_0$209	= .
                                    733 	.globl	C$UtilEnemy.c$111$1_0$209
                                    734 ;UtilEnemy.c:111: if(e_data->e_state == HIT){
      000248 F8 02            [12]  735 	ldhl	sp,#2
      00024A 2A               [ 8]  736 	ld	a, (hl+)
      00024B 5F               [ 4]  737 	ld	e, a
                           00024C   738 	C$UtilEnemy.c$119$1_0$209	= .
                                    739 	.globl	C$UtilEnemy.c$119$1_0$209
                                    740 ;UtilEnemy.c:119: e_data->vx = 2;
      00024C 3A               [ 8]  741 	ld	a, (hl-)
      00024D 57               [ 4]  742 	ld	d, a
      00024E 1A               [ 8]  743 	ld	a, (de)
      00024F 4F               [ 4]  744 	ld	c, a
      000250 2A               [ 8]  745 	ld	a, (hl+)
      000251 5F               [ 4]  746 	ld	e, a
      000252 56               [ 8]  747 	ld	d, (hl)
      000253 21 02 00         [12]  748 	ld	hl, #0x0002
      000256 19               [ 8]  749 	add	hl, de
      000257 E5               [16]  750 	push	hl
      000258 7D               [ 4]  751 	ld	a, l
      000259 F8 0B            [12]  752 	ldhl	sp,	#11
      00025B 77               [ 8]  753 	ld	(hl), a
      00025C E1               [12]  754 	pop	hl
      00025D 7C               [ 4]  755 	ld	a, h
      00025E F8 0A            [12]  756 	ldhl	sp,	#10
      000260 77               [ 8]  757 	ld	(hl), a
                           000261   758 	C$UtilEnemy.c$120$1_0$209	= .
                                    759 	.globl	C$UtilEnemy.c$120$1_0$209
                                    760 ;UtilEnemy.c:120: e_data->vy = 2;
      000261 F8 02            [12]  761 	ldhl	sp,#2
      000263 2A               [ 8]  762 	ld	a, (hl+)
      000264 5F               [ 4]  763 	ld	e, a
      000265 56               [ 8]  764 	ld	d, (hl)
      000266 21 03 00         [12]  765 	ld	hl, #0x0003
      000269 19               [ 8]  766 	add	hl, de
      00026A E5               [16]  767 	push	hl
      00026B 7D               [ 4]  768 	ld	a, l
      00026C F8 0D            [12]  769 	ldhl	sp,	#13
      00026E 77               [ 8]  770 	ld	(hl), a
      00026F E1               [12]  771 	pop	hl
      000270 7C               [ 4]  772 	ld	a, h
      000271 F8 0C            [12]  773 	ldhl	sp,	#12
      000273 77               [ 8]  774 	ld	(hl), a
                           000274   775 	C$UtilEnemy.c$126$1_0$209	= .
                                    776 	.globl	C$UtilEnemy.c$126$1_0$209
                                    777 ;UtilEnemy.c:126: if(s_orpheus->y < s_enemy->y){
      000274 D1               [12]  778 	pop	de
      000275 D5               [16]  779 	push	de
      000276 21 0E 00         [12]  780 	ld	hl, #0x000e
      000279 19               [ 8]  781 	add	hl, de
      00027A E5               [16]  782 	push	hl
      00027B 7D               [ 4]  783 	ld	a, l
      00027C F8 0F            [12]  784 	ldhl	sp,	#15
      00027E 77               [ 8]  785 	ld	(hl), a
      00027F E1               [12]  786 	pop	hl
      000280 7C               [ 4]  787 	ld	a, h
      000281 F8 0E            [12]  788 	ldhl	sp,	#14
      000283 77               [ 8]  789 	ld	(hl), a
                           000284   790 	C$UtilEnemy.c$111$1_0$209	= .
                                    791 	.globl	C$UtilEnemy.c$111$1_0$209
                                    792 ;UtilEnemy.c:111: if(e_data->e_state == HIT){
      000284 79               [ 4]  793 	ld	a, c
      000285 D6 0C            [ 8]  794 	sub	a, #0x0c
      000287 C2r5Ar04         [16]  795 	jp	NZ,00134$
                           00028A   796 	C$UtilEnemy.c$114$3_0$215	= .
                                    797 	.globl	C$UtilEnemy.c$114$3_0$215
                                    798 ;UtilEnemy.c:114: if(s_enemy->anim_frame == 3){
      00028A D1               [12]  799 	pop	de
      00028B D5               [16]  800 	push	de
      00028C 21 09 00         [12]  801 	ld	hl, #0x0009
      00028F 19               [ 8]  802 	add	hl, de
      000290 4D               [ 4]  803 	ld	c, l
      000291 44               [ 4]  804 	ld	b, h
      000292 0A               [ 8]  805 	ld	a, (bc)
      000293 4F               [ 4]  806 	ld	c, a
                           000294   807 	C$UtilEnemy.c$115$1_0$209	= .
                                    808 	.globl	C$UtilEnemy.c$115$1_0$209
                                    809 ;UtilEnemy.c:115: s_enemy->mirror = V_MIRROR;
      000294 D1               [12]  810 	pop	de
      000295 D5               [16]  811 	push	de
      000296 21 10 00         [12]  812 	ld	hl, #0x0010
      000299 19               [ 8]  813 	add	hl, de
      00029A 5D               [ 4]  814 	ld	e, l
      00029B 54               [ 4]  815 	ld	d, h
                           00029C   816 	C$UtilEnemy.c$114$3_0$215	= .
                                    817 	.globl	C$UtilEnemy.c$114$3_0$215
                                    818 ;UtilEnemy.c:114: if(s_enemy->anim_frame == 3){
      00029C 79               [ 4]  819 	ld	a, c
      00029D D6 03            [ 8]  820 	sub	a, #0x03
      00029F 20 05            [12]  821 	jr	NZ, 00113$
                           0002A1   822 	C$UtilEnemy.c$115$4_0$216	= .
                                    823 	.globl	C$UtilEnemy.c$115$4_0$216
                                    824 ;UtilEnemy.c:115: s_enemy->mirror = V_MIRROR;
      0002A1 3E 02            [ 8]  825 	ld	a, #0x02
      0002A3 12               [ 8]  826 	ld	(de), a
      0002A4 18 02            [12]  827 	jr	00114$
      0002A6                        828 00113$:
                           0002A6   829 	C$UtilEnemy.c$116$4_0$217	= .
                                    830 	.globl	C$UtilEnemy.c$116$4_0$217
                                    831 ;UtilEnemy.c:116: }else{s_enemy->mirror = NO_MIRROR;}
      0002A6 AF               [ 4]  832 	xor	a, a
      0002A7 12               [ 8]  833 	ld	(de), a
      0002A8                        834 00114$:
                           0002A8   835 	C$UtilEnemy.c$119$3_1$218	= .
                                    836 	.globl	C$UtilEnemy.c$119$3_1$218
                                    837 ;UtilEnemy.c:119: e_data->vx = 2;
      0002A8 F8 09            [12]  838 	ldhl	sp,	#9
      0002AA 2A               [ 8]  839 	ld	a,	(hl+)
      0002AB 66               [ 8]  840 	ld	h, (hl)
      0002AC 6F               [ 4]  841 	ld	l, a
      0002AD 36 02            [12]  842 	ld	(hl), #0x02
                           0002AF   843 	C$UtilEnemy.c$120$3_1$218	= .
                                    844 	.globl	C$UtilEnemy.c$120$3_1$218
                                    845 ;UtilEnemy.c:120: e_data->vy = 2;
      0002AF F8 0B            [12]  846 	ldhl	sp,	#11
      0002B1 2A               [ 8]  847 	ld	a,	(hl+)
      0002B2 66               [ 8]  848 	ld	h, (hl)
      0002B3 6F               [ 4]  849 	ld	l, a
      0002B4 36 02            [12]  850 	ld	(hl), #0x02
                           0002B6   851 	C$UtilEnemy.c$121$1_0$209	= .
                                    852 	.globl	C$UtilEnemy.c$121$1_0$209
                                    853 ;UtilEnemy.c:121: if(s_orpheus->x < s_enemy->x){
      0002B6 FAr00r00         [16]  854 	ld	a, (#_s_orpheus)
      0002B9 F8 0F            [12]  855 	ldhl	sp,	#15
      0002BB 77               [ 8]  856 	ld	(hl), a
      0002BC FAr01r00         [16]  857 	ld	a, (#_s_orpheus + 1)
      0002BF F8 10            [12]  858 	ldhl	sp,	#16
      0002C1 32               [ 8]  859 	ld	(hl-), a
      0002C2 2A               [ 8]  860 	ld	a, (hl+)
      0002C3 5F               [ 4]  861 	ld	e, a
      0002C4 56               [ 8]  862 	ld	d, (hl)
      0002C5 21 0C 00         [12]  863 	ld	hl, #0x000c
      0002C8 19               [ 8]  864 	add	hl, de
      0002C9 4D               [ 4]  865 	ld	c, l
      0002CA 44               [ 4]  866 	ld	b, h
      0002CB 59               [ 4]  867 	ld	e, c
      0002CC 50               [ 4]  868 	ld	d, b
      0002CD 1A               [ 8]  869 	ld	a, (de)
      0002CE F8 11            [12]  870 	ldhl	sp,	#17
      0002D0 22               [ 8]  871 	ld	(hl+), a
      0002D1 13               [ 8]  872 	inc	de
      0002D2 1A               [ 8]  873 	ld	a, (de)
      0002D3 77               [ 8]  874 	ld	(hl), a
      0002D4 D1               [12]  875 	pop	de
      0002D5 D5               [16]  876 	push	de
      0002D6 21 0C 00         [12]  877 	ld	hl, #0x000c
      0002D9 19               [ 8]  878 	add	hl, de
      0002DA E5               [16]  879 	push	hl
      0002DB 7D               [ 4]  880 	ld	a, l
      0002DC F8 17            [12]  881 	ldhl	sp,	#23
      0002DE 77               [ 8]  882 	ld	(hl), a
      0002DF E1               [12]  883 	pop	hl
      0002E0 7C               [ 4]  884 	ld	a, h
      0002E1 F8 16            [12]  885 	ldhl	sp,	#22
      0002E3 32               [ 8]  886 	ld	(hl-), a
      0002E4 2A               [ 8]  887 	ld	a, (hl+)
      0002E5 5F               [ 4]  888 	ld	e, a
      0002E6 56               [ 8]  889 	ld	d, (hl)
      0002E7 1A               [ 8]  890 	ld	a, (de)
      0002E8 F8 13            [12]  891 	ldhl	sp,	#19
      0002EA 22               [ 8]  892 	ld	(hl+), a
      0002EB 13               [ 8]  893 	inc	de
      0002EC 1A               [ 8]  894 	ld	a, (de)
      0002ED 77               [ 8]  895 	ld	(hl), a
      0002EE F8 11            [12]  896 	ldhl	sp,	#17
      0002F0 5D               [ 4]  897 	ld	e, l
      0002F1 54               [ 4]  898 	ld	d, h
      0002F2 F8 13            [12]  899 	ldhl	sp,	#19
      0002F4 1A               [ 8]  900 	ld	a, (de)
      0002F5 13               [ 8]  901 	inc	de
      0002F6 96               [ 8]  902 	sub	a, (hl)
      0002F7 23               [ 8]  903 	inc	hl
      0002F8 1A               [ 8]  904 	ld	a, (de)
      0002F9 9E               [ 8]  905 	sbc	a, (hl)
      0002FA 30 39            [12]  906 	jr	NC, 00116$
                           0002FC   907 	C$UtilEnemy.c$122$4_1$219	= .
                                    908 	.globl	C$UtilEnemy.c$122$4_1$219
                                    909 ;UtilEnemy.c:122: e_data->vx = -2;
      0002FC F8 09            [12]  910 	ldhl	sp,	#9
      0002FE 2A               [ 8]  911 	ld	a,	(hl+)
      0002FF 66               [ 8]  912 	ld	h, (hl)
      000300 6F               [ 4]  913 	ld	l, a
      000301 36 FE            [12]  914 	ld	(hl), #0xfe
                           000303   915 	C$UtilEnemy.c$123$4_1$219	= .
                                    916 	.globl	C$UtilEnemy.c$123$4_1$219
                                    917 ;UtilEnemy.c:123: delta_x = s_enemy->x - s_orpheus->x;
      000303 F8 15            [12]  918 	ldhl	sp,#21
      000305 2A               [ 8]  919 	ld	a, (hl+)
      000306 5F               [ 4]  920 	ld	e, a
      000307 56               [ 8]  921 	ld	d, (hl)
      000308 1A               [ 8]  922 	ld	a, (de)
      000309 F8 12            [12]  923 	ldhl	sp,	#18
      00030B 22               [ 8]  924 	ld	(hl+), a
      00030C 13               [ 8]  925 	inc	de
      00030D 1A               [ 8]  926 	ld	a, (de)
      00030E 77               [ 8]  927 	ld	(hl), a
                           00030F   928 	C$UtilEnemy.c$121$1_0$209	= .
                                    929 	.globl	C$UtilEnemy.c$121$1_0$209
                                    930 ;UtilEnemy.c:121: if(s_orpheus->x < s_enemy->x){
      00030F FAr00r00         [16]  931 	ld	a, (#_s_orpheus)
      000312 F8 0F            [12]  932 	ldhl	sp,	#15
      000314 77               [ 8]  933 	ld	(hl), a
      000315 FAr01r00         [16]  934 	ld	a, (#_s_orpheus + 1)
      000318 F8 10            [12]  935 	ldhl	sp,	#16
                           00031A   936 	C$UtilEnemy.c$123$4_1$219	= .
                                    937 	.globl	C$UtilEnemy.c$123$4_1$219
                                    938 ;UtilEnemy.c:123: delta_x = s_enemy->x - s_orpheus->x;
      00031A 32               [ 8]  939 	ld	(hl-), a
      00031B 2A               [ 8]  940 	ld	a, (hl+)
      00031C 5F               [ 4]  941 	ld	e, a
      00031D 56               [ 8]  942 	ld	d, (hl)
      00031E 21 0C 00         [12]  943 	ld	hl, #0x000c
      000321 19               [ 8]  944 	add	hl, de
      000322 2A               [ 8]  945 	ld	a, (hl+)
      000323 4F               [ 4]  946 	ld	c, a
      000324 46               [ 8]  947 	ld	b, (hl)
      000325 F8 12            [12]  948 	ldhl	sp,#18
      000327 2A               [ 8]  949 	ld	a, (hl+)
      000328 5F               [ 4]  950 	ld	e, a
      000329 56               [ 8]  951 	ld	d, (hl)
      00032A 7B               [ 4]  952 	ld	a, e
      00032B 91               [ 4]  953 	sub	a, c
      00032C 5F               [ 4]  954 	ld	e, a
      00032D 7A               [ 4]  955 	ld	a, d
      00032E 98               [ 4]  956 	sbc	a, b
      00032F F8 16            [12]  957 	ldhl	sp,	#22
      000331 32               [ 8]  958 	ld	(hl-), a
      000332 73               [ 8]  959 	ld	(hl), e
      000333 18 12            [12]  960 	jr	00117$
      000335                        961 00116$:
                           000335   962 	C$UtilEnemy.c$124$4_1$220	= .
                                    963 	.globl	C$UtilEnemy.c$124$4_1$220
                                    964 ;UtilEnemy.c:124: }else{delta_x = s_orpheus->x - s_enemy->x;}
      000335 F8 11            [12]  965 	ldhl	sp,#17
      000337 2A               [ 8]  966 	ld	a, (hl+)
      000338 5F               [ 4]  967 	ld	e, a
      000339 2A               [ 8]  968 	ld	a, (hl+)
      00033A 57               [ 4]  969 	ld	d, a
      00033B 2A               [ 8]  970 	ld	a,	(hl+)
      00033C 66               [ 8]  971 	ld	h, (hl)
      00033D 6F               [ 4]  972 	ld	l, a
      00033E 7B               [ 4]  973 	ld	a, e
      00033F 95               [ 4]  974 	sub	a, l
      000340 5F               [ 4]  975 	ld	e, a
      000341 7A               [ 4]  976 	ld	a, d
      000342 9C               [ 4]  977 	sbc	a, h
      000343 F8 16            [12]  978 	ldhl	sp,	#22
      000345 32               [ 8]  979 	ld	(hl-), a
      000346 73               [ 8]  980 	ld	(hl), e
      000347                        981 00117$:
                           000347   982 	C$UtilEnemy.c$126$1_0$209	= .
                                    983 	.globl	C$UtilEnemy.c$126$1_0$209
                                    984 ;UtilEnemy.c:126: if(s_orpheus->y < s_enemy->y){
      000347 F8 0F            [12]  985 	ldhl	sp,#15
      000349 2A               [ 8]  986 	ld	a, (hl+)
      00034A 5F               [ 4]  987 	ld	e, a
      00034B 56               [ 8]  988 	ld	d, (hl)
      00034C 21 0E 00         [12]  989 	ld	hl, #0x000e
      00034F 19               [ 8]  990 	add	hl, de
      000350 2A               [ 8]  991 	ld	a, (hl+)
      000351 4F               [ 4]  992 	ld	c, a
      000352 46               [ 8]  993 	ld	b, (hl)
      000353 F8 0D            [12]  994 	ldhl	sp,#13
      000355 2A               [ 8]  995 	ld	a, (hl+)
      000356 5F               [ 4]  996 	ld	e, a
      000357 56               [ 8]  997 	ld	d, (hl)
      000358 1A               [ 8]  998 	ld	a, (de)
      000359 F8 11            [12]  999 	ldhl	sp,	#17
      00035B 22               [ 8] 1000 	ld	(hl+), a
      00035C 13               [ 8] 1001 	inc	de
      00035D 1A               [ 8] 1002 	ld	a, (de)
      00035E 32               [ 8] 1003 	ld	(hl-), a
      00035F 79               [ 4] 1004 	ld	a, c
      000360 96               [ 8] 1005 	sub	a, (hl)
      000361 23               [ 8] 1006 	inc	hl
      000362 78               [ 4] 1007 	ld	a, b
      000363 9E               [ 8] 1008 	sbc	a, (hl)
      000364 30 30            [12] 1009 	jr	NC, 00119$
                           000366  1010 	C$UtilEnemy.c$127$4_2$222	= .
                                   1011 	.globl	C$UtilEnemy.c$127$4_2$222
                                   1012 ;UtilEnemy.c:127: e_data->vy = -2;
      000366 F8 0B            [12] 1013 	ldhl	sp,	#11
      000368 2A               [ 8] 1014 	ld	a,	(hl+)
      000369 66               [ 8] 1015 	ld	h, (hl)
      00036A 6F               [ 4] 1016 	ld	l, a
      00036B 36 FE            [12] 1017 	ld	(hl), #0xfe
                           00036D  1018 	C$UtilEnemy.c$128$4_2$222	= .
                                   1019 	.globl	C$UtilEnemy.c$128$4_2$222
                                   1020 ;UtilEnemy.c:128: delta_y = s_enemy->y - s_orpheus->y;
      00036D F8 0D            [12] 1021 	ldhl	sp,#13
      00036F 2A               [ 8] 1022 	ld	a, (hl+)
      000370 5F               [ 4] 1023 	ld	e, a
      000371 56               [ 8] 1024 	ld	d, (hl)
      000372 1A               [ 8] 1025 	ld	a, (de)
      000373 F8 11            [12] 1026 	ldhl	sp,	#17
      000375 22               [ 8] 1027 	ld	(hl+), a
      000376 13               [ 8] 1028 	inc	de
      000377 1A               [ 8] 1029 	ld	a, (de)
      000378 77               [ 8] 1030 	ld	(hl), a
      000379 21r00r00         [12] 1031 	ld	hl, #_s_orpheus
      00037C 2A               [ 8] 1032 	ld	a, (hl+)
      00037D 4F               [ 4] 1033 	ld	c, a
      00037E 46               [ 8] 1034 	ld	b, (hl)
      00037F 21 0E 00         [12] 1035 	ld	hl, #0x000e
      000382 09               [ 8] 1036 	add	hl, bc
      000383 2A               [ 8] 1037 	ld	a, (hl+)
      000384 4F               [ 4] 1038 	ld	c, a
      000385 46               [ 8] 1039 	ld	b, (hl)
      000386 F8 11            [12] 1040 	ldhl	sp,#17
      000388 2A               [ 8] 1041 	ld	a, (hl+)
      000389 5F               [ 4] 1042 	ld	e, a
      00038A 2A               [ 8] 1043 	ld	a, (hl+)
      00038B 23               [ 8] 1044 	inc	hl
      00038C 57               [ 4] 1045 	ld	d, a
      00038D 7B               [ 4] 1046 	ld	a, e
      00038E 91               [ 4] 1047 	sub	a, c
      00038F 5F               [ 4] 1048 	ld	e, a
      000390 7A               [ 4] 1049 	ld	a, d
      000391 98               [ 4] 1050 	sbc	a, b
      000392 32               [ 8] 1051 	ld	(hl-), a
      000393 73               [ 8] 1052 	ld	(hl), e
      000394 18 0E            [12] 1053 	jr	00120$
      000396                       1054 00119$:
                           000396  1055 	C$UtilEnemy.c$130$4_2$223	= .
                                   1056 	.globl	C$UtilEnemy.c$130$4_2$223
                                   1057 ;UtilEnemy.c:130: delta_y = s_orpheus->y - s_enemy->y;
      000396 F8 11            [12] 1058 	ldhl	sp,#17
      000398 2A               [ 8] 1059 	ld	a, (hl+)
      000399 5F               [ 4] 1060 	ld	e, a
      00039A 2A               [ 8] 1061 	ld	a, (hl+)
      00039B 23               [ 8] 1062 	inc	hl
      00039C 57               [ 4] 1063 	ld	d, a
      00039D 79               [ 4] 1064 	ld	a, c
      00039E 93               [ 4] 1065 	sub	a, e
      00039F 5F               [ 4] 1066 	ld	e, a
      0003A0 78               [ 4] 1067 	ld	a, b
      0003A1 9A               [ 4] 1068 	sbc	a, d
      0003A2 32               [ 8] 1069 	ld	(hl-), a
      0003A3 73               [ 8] 1070 	ld	(hl), e
      0003A4                       1071 00120$:
                           0003A4  1072 	C$UtilEnemy.c$132$3_2$221	= .
                                   1073 	.globl	C$UtilEnemy.c$132$3_2$221
                                   1074 ;UtilEnemy.c:132: if((delta_x << 1) < delta_y){
      0003A4 F8 15            [12] 1075 	ldhl	sp,#21
      0003A6 2A               [ 8] 1076 	ld	a, (hl+)
      0003A7 4F               [ 4] 1077 	ld	c, a
      0003A8 46               [ 8] 1078 	ld	b, (hl)
      0003A9 CB 21            [ 8] 1079 	sla	c
      0003AB CB 10            [ 8] 1080 	rl	b
      0003AD F8 13            [12] 1081 	ldhl	sp,	#19
      0003AF 79               [ 4] 1082 	ld	a, c
      0003B0 96               [ 8] 1083 	sub	a, (hl)
      0003B1 23               [ 8] 1084 	inc	hl
      0003B2 78               [ 4] 1085 	ld	a, b
      0003B3 9E               [ 8] 1086 	sbc	a, (hl)
      0003B4 30 15            [12] 1087 	jr	NC, 00124$
                           0003B6  1088 	C$UtilEnemy.c$133$4_2$224	= .
                                   1089 	.globl	C$UtilEnemy.c$133$4_2$224
                                   1090 ;UtilEnemy.c:133: e_data->vy = e_data->vy*2;
      0003B6 F8 0B            [12] 1091 	ldhl	sp,#11
      0003B8 2A               [ 8] 1092 	ld	a, (hl+)
      0003B9 5F               [ 4] 1093 	ld	e, a
      0003BA 56               [ 8] 1094 	ld	d, (hl)
      0003BB 1A               [ 8] 1095 	ld	a, (de)
      0003BC 87               [ 4] 1096 	add	a, a
      0003BD 4F               [ 4] 1097 	ld	c, a
      0003BE 3A               [ 8] 1098 	ld	a, (hl-)
      0003BF 6E               [ 8] 1099 	ld	l, (hl)
      0003C0 67               [ 4] 1100 	ld	h, a
      0003C1 71               [ 8] 1101 	ld	(hl), c
                           0003C2  1102 	C$UtilEnemy.c$134$4_2$224	= .
                                   1103 	.globl	C$UtilEnemy.c$134$4_2$224
                                   1104 ;UtilEnemy.c:134: e_data->vx = 0;
      0003C2 F8 09            [12] 1105 	ldhl	sp,	#9
      0003C4 2A               [ 8] 1106 	ld	a,	(hl+)
      0003C5 66               [ 8] 1107 	ld	h, (hl)
      0003C6 6F               [ 4] 1108 	ld	l, a
      0003C7 36 00            [12] 1109 	ld	(hl), #0x00
      0003C9 18 24            [12] 1110 	jr	00125$
      0003CB                       1111 00124$:
                           0003CB  1112 	C$UtilEnemy.c$135$3_2$221	= .
                                   1113 	.globl	C$UtilEnemy.c$135$3_2$221
                                   1114 ;UtilEnemy.c:135: }else if((delta_y <<1) < delta_x){
      0003CB F8 13            [12] 1115 	ldhl	sp,#19
      0003CD 2A               [ 8] 1116 	ld	a, (hl+)
      0003CE 4F               [ 4] 1117 	ld	c, a
      0003CF 2A               [ 8] 1118 	ld	a, (hl+)
      0003D0 47               [ 4] 1119 	ld	b, a
      0003D1 CB 21            [ 8] 1120 	sla	c
      0003D3 CB 10            [ 8] 1121 	rl	b
      0003D5 79               [ 4] 1122 	ld	a, c
      0003D6 96               [ 8] 1123 	sub	a, (hl)
      0003D7 23               [ 8] 1124 	inc	hl
      0003D8 78               [ 4] 1125 	ld	a, b
      0003D9 9E               [ 8] 1126 	sbc	a, (hl)
      0003DA 30 13            [12] 1127 	jr	NC, 00125$
                           0003DC  1128 	C$UtilEnemy.c$136$4_2$225	= .
                                   1129 	.globl	C$UtilEnemy.c$136$4_2$225
                                   1130 ;UtilEnemy.c:136: e_data->vx = e_data->vx*2;
      0003DC F8 09            [12] 1131 	ldhl	sp,#9
      0003DE 2A               [ 8] 1132 	ld	a, (hl+)
      0003DF 5F               [ 4] 1133 	ld	e, a
      0003E0 56               [ 8] 1134 	ld	d, (hl)
      0003E1 1A               [ 8] 1135 	ld	a, (de)
      0003E2 87               [ 4] 1136 	add	a, a
      0003E3 4F               [ 4] 1137 	ld	c, a
      0003E4 3A               [ 8] 1138 	ld	a, (hl-)
      0003E5 6E               [ 8] 1139 	ld	l, (hl)
      0003E6 67               [ 4] 1140 	ld	h, a
      0003E7 71               [ 8] 1141 	ld	(hl), c
                           0003E8  1142 	C$UtilEnemy.c$137$4_2$225	= .
                                   1143 	.globl	C$UtilEnemy.c$137$4_2$225
                                   1144 ;UtilEnemy.c:137: e_data->vy = 0;
      0003E8 F8 0B            [12] 1145 	ldhl	sp,	#11
      0003EA 2A               [ 8] 1146 	ld	a,	(hl+)
      0003EB 66               [ 8] 1147 	ld	h, (hl)
      0003EC 6F               [ 4] 1148 	ld	l, a
      0003ED 36 00            [12] 1149 	ld	(hl), #0x00
      0003EF                       1150 00125$:
                           0003EF  1151 	C$UtilEnemy.c$139$3_2$221	= .
                                   1152 	.globl	C$UtilEnemy.c$139$3_2$221
                                   1153 ;UtilEnemy.c:139: switch(song_selection){
      0003EF FAr00r00         [16] 1154 	ld	a, (#_song_selection)
      0003F2 B7               [ 4] 1155 	or	a, a
      0003F3 28 39            [12] 1156 	jr	Z, 00129$
      0003F5 FAr00r00         [16] 1157 	ld	a, (#_song_selection)
      0003F8 3D               [ 4] 1158 	dec	a
      0003F9 28 25            [12] 1159 	jr	Z, 00128$
      0003FB FAr00r00         [16] 1160 	ld	a, (#_song_selection)
      0003FE D6 02            [ 8] 1161 	sub	a, #0x02
      000400 20 2C            [12] 1162 	jr	NZ, 00129$
                           000402  1163 	C$UtilEnemy.c$142$4_2$226	= .
                                   1164 	.globl	C$UtilEnemy.c$142$4_2$226
                                   1165 ;UtilEnemy.c:142: e_data->vx = -e_data->vx;
      000402 F8 09            [12] 1166 	ldhl	sp,#9
      000404 2A               [ 8] 1167 	ld	a, (hl+)
      000405 5F               [ 4] 1168 	ld	e, a
      000406 56               [ 8] 1169 	ld	d, (hl)
      000407 1A               [ 8] 1170 	ld	a, (de)
      000408 4F               [ 4] 1171 	ld	c, a
      000409 AF               [ 4] 1172 	xor	a, a
      00040A 91               [ 4] 1173 	sub	a, c
      00040B 4F               [ 4] 1174 	ld	c, a
      00040C 3A               [ 8] 1175 	ld	a, (hl-)
      00040D 6E               [ 8] 1176 	ld	l, (hl)
      00040E 67               [ 4] 1177 	ld	h, a
      00040F 71               [ 8] 1178 	ld	(hl), c
                           000410  1179 	C$UtilEnemy.c$143$4_2$226	= .
                                   1180 	.globl	C$UtilEnemy.c$143$4_2$226
                                   1181 ;UtilEnemy.c:143: e_data->vy = -e_data->vy;
      000410 F8 0B            [12] 1182 	ldhl	sp,#11
      000412 2A               [ 8] 1183 	ld	a, (hl+)
      000413 5F               [ 4] 1184 	ld	e, a
      000414 56               [ 8] 1185 	ld	d, (hl)
      000415 1A               [ 8] 1186 	ld	a, (de)
      000416 4F               [ 4] 1187 	ld	c, a
      000417 AF               [ 4] 1188 	xor	a, a
      000418 91               [ 4] 1189 	sub	a, c
      000419 4F               [ 4] 1190 	ld	c, a
      00041A 3A               [ 8] 1191 	ld	a, (hl-)
      00041B 6E               [ 8] 1192 	ld	l, (hl)
      00041C 67               [ 4] 1193 	ld	h, a
      00041D 71               [ 8] 1194 	ld	(hl), c
                           00041E  1195 	C$UtilEnemy.c$144$4_2$226	= .
                                   1196 	.globl	C$UtilEnemy.c$144$4_2$226
                                   1197 ;UtilEnemy.c:144: break;
      00041E 18 0E            [12] 1198 	jr	00129$
                           000420  1199 	C$UtilEnemy.c$145$4_2$226	= .
                                   1200 	.globl	C$UtilEnemy.c$145$4_2$226
                                   1201 ;UtilEnemy.c:145: case SLEEP:
      000420                       1202 00128$:
                           000420  1203 	C$UtilEnemy.c$146$4_2$226	= .
                                   1204 	.globl	C$UtilEnemy.c$146$4_2$226
                                   1205 ;UtilEnemy.c:146: e_data->vx = 0;
      000420 F8 09            [12] 1206 	ldhl	sp,	#9
      000422 2A               [ 8] 1207 	ld	a,	(hl+)
      000423 66               [ 8] 1208 	ld	h, (hl)
      000424 6F               [ 4] 1209 	ld	l, a
      000425 36 00            [12] 1210 	ld	(hl), #0x00
                           000427  1211 	C$UtilEnemy.c$147$4_2$226	= .
                                   1212 	.globl	C$UtilEnemy.c$147$4_2$226
                                   1213 ;UtilEnemy.c:147: e_data->vy = 0;
      000427 F8 0B            [12] 1214 	ldhl	sp,	#11
      000429 2A               [ 8] 1215 	ld	a,	(hl+)
      00042A 66               [ 8] 1216 	ld	h, (hl)
      00042B 6F               [ 4] 1217 	ld	l, a
      00042C 36 00            [12] 1218 	ld	(hl), #0x00
                           00042E  1219 	C$UtilEnemy.c$149$3_2$221	= .
                                   1220 	.globl	C$UtilEnemy.c$149$3_2$221
                                   1221 ;UtilEnemy.c:149: }
      00042E                       1222 00129$:
                           00042E  1223 	C$UtilEnemy.c$151$2_0$214	= .
                                   1224 	.globl	C$UtilEnemy.c$151$2_0$214
                                   1225 ;UtilEnemy.c:151: if(e_data->wait > 0){
      00042E F8 07            [12] 1226 	ldhl	sp,#7
      000430 2A               [ 8] 1227 	ld	a, (hl+)
      000431 5F               [ 4] 1228 	ld	e, a
      000432 56               [ 8] 1229 	ld	d, (hl)
      000433 1A               [ 8] 1230 	ld	a, (de)
      000434 B7               [ 4] 1231 	or	a, a
      000435 28 08            [12] 1232 	jr	Z, 00131$
                           000437  1233 	C$UtilEnemy.c$152$3_0$227	= .
                                   1234 	.globl	C$UtilEnemy.c$152$3_0$227
                                   1235 ;UtilEnemy.c:152: e_data->wait--;
      000437 4F               [ 4] 1236 	ld	c, a
      000438 0D               [ 4] 1237 	dec	c
      000439 3A               [ 8] 1238 	ld	a, (hl-)
      00043A 6E               [ 8] 1239 	ld	l, (hl)
      00043B 67               [ 4] 1240 	ld	h, a
      00043C 71               [ 8] 1241 	ld	(hl), c
      00043D 18 27            [12] 1242 	jr	00135$
      00043F                       1243 00131$:
                           00043F  1244 	C$UtilEnemy.c$154$3_0$228	= .
                                   1245 	.globl	C$UtilEnemy.c$154$3_0$228
                                   1246 ;UtilEnemy.c:154: e_change_state(s_enemy, GENERIC_WALK, e_sprite_type);
      00043F F8 04            [12] 1247 	ldhl	sp,	#4
      000441 7E               [ 8] 1248 	ld	a, (hl)
      000442 F5               [16] 1249 	push	af
      000443 33               [ 8] 1250 	inc	sp
      000444 3E 01            [ 8] 1251 	ld	a, #0x01
      000446 F5               [16] 1252 	push	af
      000447 33               [ 8] 1253 	inc	sp
      000448 F8 02            [12] 1254 	ldhl	sp,	#2
      00044A 5E               [ 8] 1255 	ld	e, (hl)
      00044B 23               [ 8] 1256 	inc	hl
      00044C 56               [ 8] 1257 	ld	d, (hl)
      00044D D5               [16] 1258 	push	de
      00044E 1Er00            [ 8] 1259 	ld	e, #b_e_change_state
      000450 21r74r00         [12] 1260 	ld	hl, #_e_change_state
      000453 CDr00r00         [24] 1261 	call	___sdcc_bcall_ehl
      000456 E8 04            [16] 1262 	add	sp, #4
      000458 18 0C            [12] 1263 	jr	00135$
      00045A                       1264 00134$:
                           00045A  1265 	C$UtilEnemy.c$157$2_0$229	= .
                                   1266 	.globl	C$UtilEnemy.c$157$2_0$229
                                   1267 ;UtilEnemy.c:157: e_data->wait++;//USING AS RANDOM TO CLOCKWISE TURNING
      00045A F8 07            [12] 1268 	ldhl	sp,#7
      00045C 2A               [ 8] 1269 	ld	a, (hl+)
      00045D 5F               [ 4] 1270 	ld	e, a
      00045E 56               [ 8] 1271 	ld	d, (hl)
      00045F 1A               [ 8] 1272 	ld	a, (de)
      000460 4F               [ 4] 1273 	ld	c, a
      000461 0C               [ 4] 1274 	inc	c
      000462 3A               [ 8] 1275 	ld	a, (hl-)
      000463 6E               [ 8] 1276 	ld	l, (hl)
      000464 67               [ 4] 1277 	ld	h, a
      000465 71               [ 8] 1278 	ld	(hl), c
      000466                       1279 00135$:
                           000466  1280 	C$UtilEnemy.c$159$1_0$209	= .
                                   1281 	.globl	C$UtilEnemy.c$159$1_0$209
                                   1282 ;UtilEnemy.c:159: if(e_data->frmskip_wait == 0){
      000466 F8 05            [12] 1283 	ldhl	sp,#5
      000468 2A               [ 8] 1284 	ld	a, (hl+)
      000469 5F               [ 4] 1285 	ld	e, a
      00046A 56               [ 8] 1286 	ld	d, (hl)
      00046B 1A               [ 8] 1287 	ld	a, (de)
      00046C F8 16            [12] 1288 	ldhl	sp,	#22
      00046E 77               [ 8] 1289 	ld	(hl), a
      00046F B7               [ 4] 1290 	or	a, a
      000470 C2r95r05         [16] 1291 	jp	NZ, 00155$
                           000473  1292 	C$UtilEnemy.c$160$2_0$230	= .
                                   1293 	.globl	C$UtilEnemy.c$160$2_0$230
                                   1294 ;UtilEnemy.c:160: e_data->frmskip_wait = e_data->frmskip;
      000473 F8 02            [12] 1295 	ldhl	sp,#2
      000475 2A               [ 8] 1296 	ld	a, (hl+)
      000476 5F               [ 4] 1297 	ld	e, a
      000477 56               [ 8] 1298 	ld	d, (hl)
      000478 21 07 00         [12] 1299 	ld	hl, #0x0007
      00047B 19               [ 8] 1300 	add	hl, de
      00047C 4D               [ 4] 1301 	ld	c, l
      00047D 44               [ 4] 1302 	ld	b, h
      00047E 0A               [ 8] 1303 	ld	a, (bc)
      00047F 4F               [ 4] 1304 	ld	c, a
      000480 F8 05            [12] 1305 	ldhl	sp,	#5
      000482 2A               [ 8] 1306 	ld	a,	(hl+)
      000483 66               [ 8] 1307 	ld	h, (hl)
      000484 6F               [ 4] 1308 	ld	l, a
      000485 71               [ 8] 1309 	ld	(hl), c
                           000486  1310 	C$UtilEnemy.c$161$2_0$230	= .
                                   1311 	.globl	C$UtilEnemy.c$161$2_0$230
                                   1312 ;UtilEnemy.c:161: switch (e_data->e_state){
      000486 F8 02            [12] 1313 	ldhl	sp,#2
      000488 2A               [ 8] 1314 	ld	a, (hl+)
      000489 5F               [ 4] 1315 	ld	e, a
      00048A 56               [ 8] 1316 	ld	d, (hl)
      00048B 1A               [ 8] 1317 	ld	a, (de)
      00048C F8 16            [12] 1318 	ldhl	sp,	#22
      00048E 77               [ 8] 1319 	ld	(hl), a
      00048F D6 06            [ 8] 1320 	sub	a, #0x06
      000491 28 08            [12] 1321 	jr	Z, 00137$
      000493 F8 16            [12] 1322 	ldhl	sp,	#22
      000495 7E               [ 8] 1323 	ld	a, (hl)
      000496 D6 07            [ 8] 1324 	sub	a, #0x07
      000498 C2r27r05         [16] 1325 	jp	NZ,00144$
                           00049B  1326 	C$UtilEnemy.c$163$3_0$231	= .
                                   1327 	.globl	C$UtilEnemy.c$163$3_0$231
                                   1328 ;UtilEnemy.c:163: case WALK_RIGHT:
      00049B                       1329 00137$:
                           00049B  1330 	C$UtilEnemy.c$164$3_0$231	= .
                                   1331 	.globl	C$UtilEnemy.c$164$3_0$231
                                   1332 ;UtilEnemy.c:164: if(e_data->wait < 100){//check if Orpheus is over or above enemy
      00049B F8 07            [12] 1333 	ldhl	sp,#7
      00049D 2A               [ 8] 1334 	ld	a, (hl+)
      00049E 5F               [ 4] 1335 	ld	e, a
      00049F 56               [ 8] 1336 	ld	d, (hl)
      0004A0 1A               [ 8] 1337 	ld	a, (de)
      0004A1 D6 64            [ 8] 1338 	sub	a, #0x64
      0004A3 D2r27r05         [16] 1339 	jp	NC, 00144$
                           0004A6  1340 	C$UtilEnemy.c$165$4_0$232	= .
                                   1341 	.globl	C$UtilEnemy.c$165$4_0$232
                                   1342 ;UtilEnemy.c:165: INT8 delta_y = s_enemy->y - s_orpheus->y; 
      0004A6 F8 0D            [12] 1343 	ldhl	sp,#13
      0004A8 2A               [ 8] 1344 	ld	a, (hl+)
      0004A9 5F               [ 4] 1345 	ld	e, a
      0004AA 56               [ 8] 1346 	ld	d, (hl)
      0004AB 1A               [ 8] 1347 	ld	a, (de)
      0004AC F8 16            [12] 1348 	ldhl	sp,	#22
      0004AE 77               [ 8] 1349 	ld	(hl), a
      0004AF FAr00r00         [16] 1350 	ld	a, (#_s_orpheus)
      0004B2 F8 12            [12] 1351 	ldhl	sp,	#18
      0004B4 77               [ 8] 1352 	ld	(hl), a
      0004B5 FAr01r00         [16] 1353 	ld	a, (#_s_orpheus + 1)
      0004B8 F8 13            [12] 1354 	ldhl	sp,	#19
      0004BA 32               [ 8] 1355 	ld	(hl-), a
      0004BB 2A               [ 8] 1356 	ld	a, (hl+)
      0004BC 5F               [ 4] 1357 	ld	e, a
      0004BD 56               [ 8] 1358 	ld	d, (hl)
      0004BE 21 0E 00         [12] 1359 	ld	hl, #0x000e
      0004C1 19               [ 8] 1360 	add	hl, de
      0004C2 E5               [16] 1361 	push	hl
      0004C3 7D               [ 4] 1362 	ld	a, l
      0004C4 F8 16            [12] 1363 	ldhl	sp,	#22
      0004C6 77               [ 8] 1364 	ld	(hl), a
      0004C7 E1               [12] 1365 	pop	hl
      0004C8 7C               [ 4] 1366 	ld	a, h
      0004C9 F8 15            [12] 1367 	ldhl	sp,	#21
      0004CB 32               [ 8] 1368 	ld	(hl-), a
      0004CC 2A               [ 8] 1369 	ld	a, (hl+)
      0004CD 5F               [ 4] 1370 	ld	e, a
      0004CE 2A               [ 8] 1371 	ld	a, (hl+)
      0004CF 57               [ 4] 1372 	ld	d, a
      0004D0 1A               [ 8] 1373 	ld	a, (de)
      0004D1 4F               [ 4] 1374 	ld	c, a
      0004D2 7E               [ 8] 1375 	ld	a, (hl)
      0004D3 91               [ 4] 1376 	sub	a, c
      0004D4 4F               [ 4] 1377 	ld	c, a
                           0004D5  1378 	C$UtilEnemy.c$166$4_0$232	= .
                                   1379 	.globl	C$UtilEnemy.c$166$4_0$232
                                   1380 ;UtilEnemy.c:166: if(delta_y > 40){//enemy molto sotto orpheus
      0004D5 59               [ 4] 1381 	ld	e, c
      0004D6 3E 28            [ 8] 1382 	ld	a,#0x28
      0004D8 57               [ 4] 1383 	ld	d,a
      0004D9 91               [ 4] 1384 	sub	a, c
      0004DA CB 7B            [ 8] 1385 	bit	7, e
      0004DC 28 07            [12] 1386 	jr	Z, 00364$
      0004DE CB 7A            [ 8] 1387 	bit	7, d
      0004E0 20 08            [12] 1388 	jr	NZ, 00365$
      0004E2 BF               [ 4] 1389 	cp	a, a
      0004E3 18 05            [12] 1390 	jr	00365$
      0004E5                       1391 00364$:
      0004E5 CB 7A            [ 8] 1392 	bit	7, d
      0004E7 28 01            [12] 1393 	jr	Z, 00365$
      0004E9 37               [ 4] 1394 	scf
      0004EA                       1395 00365$:
      0004EA 30 1B            [12] 1396 	jr	NC, 00139$
                           0004EC  1397 	C$UtilEnemy.c$167$5_0$233	= .
                                   1398 	.globl	C$UtilEnemy.c$167$5_0$233
                                   1399 ;UtilEnemy.c:167: e_change_state(s_enemy, WALK_UP, e_sprite_type);
      0004EC C5               [16] 1400 	push	bc
      0004ED F8 06            [12] 1401 	ldhl	sp,	#6
      0004EF 7E               [ 8] 1402 	ld	a, (hl)
      0004F0 F5               [16] 1403 	push	af
      0004F1 33               [ 8] 1404 	inc	sp
      0004F2 3E 08            [ 8] 1405 	ld	a, #0x08
      0004F4 F5               [16] 1406 	push	af
      0004F5 33               [ 8] 1407 	inc	sp
      0004F6 F8 04            [12] 1408 	ldhl	sp,	#4
      0004F8 5E               [ 8] 1409 	ld	e, (hl)
      0004F9 23               [ 8] 1410 	inc	hl
      0004FA 56               [ 8] 1411 	ld	d, (hl)
      0004FB D5               [16] 1412 	push	de
      0004FC 1Er00            [ 8] 1413 	ld	e, #b_e_change_state
      0004FE 21r74r00         [12] 1414 	ld	hl, #_e_change_state
      000501 CDr00r00         [24] 1415 	call	___sdcc_bcall_ehl
      000504 E8 04            [16] 1416 	add	sp, #4
      000506 C1               [12] 1417 	pop	bc
      000507                       1418 00139$:
                           000507  1419 	C$UtilEnemy.c$169$4_0$232	= .
                                   1420 	.globl	C$UtilEnemy.c$169$4_0$232
                                   1421 ;UtilEnemy.c:169: if(delta_y < -40){//enemy molto sopra orpheus
      000507 79               [ 4] 1422 	ld	a, c
      000508 EE 80            [ 8] 1423 	xor	a, #0x80
      00050A D6 58            [ 8] 1424 	sub	a, #0x58
      00050C 30 19            [12] 1425 	jr	NC, 00144$
                           00050E  1426 	C$UtilEnemy.c$170$5_0$234	= .
                                   1427 	.globl	C$UtilEnemy.c$170$5_0$234
                                   1428 ;UtilEnemy.c:170: e_change_state(s_enemy, WALK_DOWN, e_sprite_type);
      00050E F8 04            [12] 1429 	ldhl	sp,	#4
      000510 7E               [ 8] 1430 	ld	a, (hl)
      000511 F5               [16] 1431 	push	af
      000512 33               [ 8] 1432 	inc	sp
      000513 3E 09            [ 8] 1433 	ld	a, #0x09
      000515 F5               [16] 1434 	push	af
      000516 33               [ 8] 1435 	inc	sp
      000517 F8 02            [12] 1436 	ldhl	sp,	#2
      000519 5E               [ 8] 1437 	ld	e, (hl)
      00051A 23               [ 8] 1438 	inc	hl
      00051B 56               [ 8] 1439 	ld	d, (hl)
      00051C D5               [16] 1440 	push	de
      00051D 1Er00            [ 8] 1441 	ld	e, #b_e_change_state
      00051F 21r74r00         [12] 1442 	ld	hl, #_e_change_state
      000522 CDr00r00         [24] 1443 	call	___sdcc_bcall_ehl
      000525 E8 04            [16] 1444 	add	sp, #4
                           000527  1445 	C$UtilEnemy.c$174$2_0$230	= .
                                   1446 	.globl	C$UtilEnemy.c$174$2_0$230
                                   1447 ;UtilEnemy.c:174: }
      000527                       1448 00144$:
                           000527  1449 	C$UtilEnemy.c$175$2_0$230	= .
                                   1450 	.globl	C$UtilEnemy.c$175$2_0$230
                                   1451 ;UtilEnemy.c:175: switch (e_data->e_state){
      000527 F8 02            [12] 1452 	ldhl	sp,#2
      000529 2A               [ 8] 1453 	ld	a, (hl+)
      00052A 5F               [ 4] 1454 	ld	e, a
      00052B 56               [ 8] 1455 	ld	d, (hl)
      00052C 1A               [ 8] 1456 	ld	a, (de)
      00052D FE 06            [ 8] 1457 	cp	a, #0x06
      00052F 28 10            [12] 1458 	jr	Z, 00149$
      000531 FE 07            [ 8] 1459 	cp	a, #0x07
      000533 28 0C            [12] 1460 	jr	Z, 00149$
      000535 FE 08            [ 8] 1461 	cp	a, #0x08
      000537 28 08            [12] 1462 	jr	Z, 00149$
      000539 FE 09            [ 8] 1463 	cp	a, #0x09
      00053B 28 04            [12] 1464 	jr	Z, 00149$
      00053D D6 0C            [ 8] 1465 	sub	a, #0x0c
      00053F 20 54            [12] 1466 	jr	NZ, 00155$
                           000541  1467 	C$UtilEnemy.c$180$3_0$235	= .
                                   1468 	.globl	C$UtilEnemy.c$180$3_0$235
                                   1469 ;UtilEnemy.c:180: case HIT:
      000541                       1470 00149$:
                           000541  1471 	C$UtilEnemy.c$181$3_0$235	= .
                                   1472 	.globl	C$UtilEnemy.c$181$3_0$235
                                   1473 ;UtilEnemy.c:181: e_data->tile_collision = TranslateSprite(THIS, e_data->vx, e_data->vy);
      000541 F8 02            [12] 1474 	ldhl	sp,#2
      000543 2A               [ 8] 1475 	ld	a, (hl+)
      000544 5F               [ 4] 1476 	ld	e, a
      000545 56               [ 8] 1477 	ld	d, (hl)
      000546 6B               [ 4] 1478 	ld	l, e
      000547 62               [ 4] 1479 	ld	h, d
      000548 23               [ 8] 1480 	inc	hl
      000549 E5               [16] 1481 	push	hl
      00054A 7D               [ 4] 1482 	ld	a, l
      00054B F8 17            [12] 1483 	ldhl	sp,	#23
      00054D 77               [ 8] 1484 	ld	(hl), a
      00054E E1               [12] 1485 	pop	hl
      00054F 7C               [ 4] 1486 	ld	a, h
      000550 F8 16            [12] 1487 	ldhl	sp,	#22
      000552 77               [ 8] 1488 	ld	(hl), a
      000553 F8 0B            [12] 1489 	ldhl	sp,#11
      000555 2A               [ 8] 1490 	ld	a, (hl+)
      000556 5F               [ 4] 1491 	ld	e, a
      000557 3A               [ 8] 1492 	ld	a, (hl-)
      000558 2B               [ 8] 1493 	dec	hl
      000559 2B               [ 8] 1494 	dec	hl
      00055A 57               [ 4] 1495 	ld	d, a
      00055B 1A               [ 8] 1496 	ld	a, (de)
      00055C 47               [ 4] 1497 	ld	b, a
      00055D 2A               [ 8] 1498 	ld	a, (hl+)
      00055E 5F               [ 4] 1499 	ld	e, a
      00055F 56               [ 8] 1500 	ld	d, (hl)
      000560 1A               [ 8] 1501 	ld	a, (de)
      000561 F8 14            [12] 1502 	ldhl	sp,	#20
      000563 77               [ 8] 1503 	ld	(hl), a
      000564 C5               [16] 1504 	push	bc
      000565 33               [ 8] 1505 	inc	sp
      000566 7E               [ 8] 1506 	ld	a, (hl)
      000567 21r00r00         [12] 1507 	ld	hl, #_THIS
      00056A 5E               [ 8] 1508 	ld	e, (hl)
      00056B 23               [ 8] 1509 	inc	hl
      00056C 56               [ 8] 1510 	ld	d, (hl)
      00056D CDr00r00         [24] 1511 	call	_TranslateSprite
      000570 F8 14            [12] 1512 	ldhl	sp,	#20
      000572 77               [ 8] 1513 	ld	(hl), a
      000573 F8 15            [12] 1514 	ldhl	sp,#21
      000575 2A               [ 8] 1515 	ld	a, (hl+)
      000576 5F               [ 4] 1516 	ld	e, a
      000577 3A               [ 8] 1517 	ld	a, (hl-)
      000578 2B               [ 8] 1518 	dec	hl
      000579 57               [ 4] 1519 	ld	d, a
      00057A 7E               [ 8] 1520 	ld	a, (hl)
      00057B 12               [ 8] 1521 	ld	(de), a
                           00057C  1522 	C$UtilEnemy.c$182$3_0$235	= .
                                   1523 	.globl	C$UtilEnemy.c$182$3_0$235
                                   1524 ;UtilEnemy.c:182: if(e_data->tile_collision){
      00057C 7E               [ 8] 1525 	ld	a, (hl)
      00057D B7               [ 4] 1526 	or	a, a
      00057E 28 15            [12] 1527 	jr	Z, 00155$
                           000580  1528 	C$UtilEnemy.c$183$4_0$236	= .
                                   1529 	.globl	C$UtilEnemy.c$183$4_0$236
                                   1530 ;UtilEnemy.c:183: e_check_tile_collision(s_enemy, e_sprite_type);
      000580 F8 04            [12] 1531 	ldhl	sp,	#4
      000582 7E               [ 8] 1532 	ld	a, (hl)
      000583 F5               [16] 1533 	push	af
      000584 33               [ 8] 1534 	inc	sp
      000585 F8 1E            [12] 1535 	ldhl	sp,	#30
      000587 5E               [ 8] 1536 	ld	e, (hl)
      000588 23               [ 8] 1537 	inc	hl
      000589 56               [ 8] 1538 	ld	d, (hl)
      00058A D5               [16] 1539 	push	de
      00058B 1Er00            [ 8] 1540 	ld	e, #b_e_check_tile_collision
      00058D 21r98r05         [12] 1541 	ld	hl, #_e_check_tile_collision
      000590 CDr00r00         [24] 1542 	call	___sdcc_bcall_ehl
      000593 E8 03            [16] 1543 	add	sp, #3
                           000595  1544 	C$UtilEnemy.c$186$1_0$209	= .
                                   1545 	.globl	C$UtilEnemy.c$186$1_0$209
                                   1546 ;UtilEnemy.c:186: }
      000595                       1547 00155$:
                           000595  1548 	C$UtilEnemy.c$188$1_0$209	= .
                                   1549 	.globl	C$UtilEnemy.c$188$1_0$209
                                   1550 ;UtilEnemy.c:188: }
      000595 E8 17            [16] 1551 	add	sp, #23
                           000597  1552 	C$UtilEnemy.c$188$1_0$209	= .
                                   1553 	.globl	C$UtilEnemy.c$188$1_0$209
                           000597  1554 	XG$e_management$0$0	= .
                                   1555 	.globl	XG$e_management$0$0
      000597 C9               [16] 1556 	ret
                           000598  1557 	G$e_check_tile_collision$0$0	= .
                                   1558 	.globl	G$e_check_tile_collision$0$0
                           000598  1559 	C$UtilEnemy.c$190$1_0$238	= .
                                   1560 	.globl	C$UtilEnemy.c$190$1_0$238
                                   1561 ;UtilEnemy.c:190: void e_check_tile_collision(Sprite* s_enemy, UINT8 e_sprite_type) BANKED{
                                   1562 ;	---------------------------------
                                   1563 ; Function e_check_tile_collision
                                   1564 ; ---------------------------------
                           0000FF  1565 	b_e_check_tile_collision	= 255
      000598                       1566 _e_check_tile_collision::
                           000598  1567 	C$UtilEnemy.c$191$1_0$238	= .
                                   1568 	.globl	C$UtilEnemy.c$191$1_0$238
                                   1569 ;UtilEnemy.c:191: struct EnemyInfo* e_data = (struct EnemyInfo*) s_enemy->custom_data;
      000598 F8 06            [12] 1570 	ldhl	sp,	#6
      00059A 2A               [ 8] 1571 	ld	a, (hl+)
      00059B 4F               [ 4] 1572 	ld	c, a
      00059C 46               [ 8] 1573 	ld	b, (hl)
                           00059D  1574 	C$UtilEnemy.c$192$1_0$238	= .
                                   1575 	.globl	C$UtilEnemy.c$192$1_0$238
                                   1576 ;UtilEnemy.c:192: if(e_data->tile_collision){
      00059D 21 1C 00         [12] 1577 	ld	hl,#0x1c
      0005A0 09               [ 8] 1578 	add	hl,bc
      0005A1 7E               [ 8] 1579 	ld	a, (hl)
      0005A2 B7               [ 4] 1580 	or	a, a
      0005A3 C8               [20] 1581 	ret	Z
                           0005A4  1582 	C$UtilEnemy.c$193$2_0$239	= .
                                   1583 	.globl	C$UtilEnemy.c$193$2_0$239
                                   1584 ;UtilEnemy.c:193: e_turn(s_enemy, e_sprite_type);
      0005A4 F8 08            [12] 1585 	ldhl	sp,	#8
      0005A6 7E               [ 8] 1586 	ld	a, (hl)
      0005A7 F5               [16] 1587 	push	af
      0005A8 33               [ 8] 1588 	inc	sp
      0005A9 C5               [16] 1589 	push	bc
      0005AA 1Er00            [ 8] 1590 	ld	e, #b_e_turn
      0005AC 21rB5r05         [12] 1591 	ld	hl, #_e_turn
      0005AF CDr00r00         [24] 1592 	call	___sdcc_bcall_ehl
      0005B2 E8 03            [16] 1593 	add	sp, #3
                           0005B4  1594 	C$UtilEnemy.c$195$1_0$238	= .
                                   1595 	.globl	C$UtilEnemy.c$195$1_0$238
                                   1596 ;UtilEnemy.c:195: }
                           0005B4  1597 	C$UtilEnemy.c$195$1_0$238	= .
                                   1598 	.globl	C$UtilEnemy.c$195$1_0$238
                           0005B4  1599 	XG$e_check_tile_collision$0$0	= .
                                   1600 	.globl	XG$e_check_tile_collision$0$0
      0005B4 C9               [16] 1601 	ret
                           0005B5  1602 	G$e_turn$0$0	= .
                                   1603 	.globl	G$e_turn$0$0
                           0005B5  1604 	C$UtilEnemy.c$197$1_0$241	= .
                                   1605 	.globl	C$UtilEnemy.c$197$1_0$241
                                   1606 ;UtilEnemy.c:197: void e_turn(Sprite* s_enemy, UINT8 e_sprite_type) BANKED{
                                   1607 ;	---------------------------------
                                   1608 ; Function e_turn
                                   1609 ; ---------------------------------
                           0000FF  1610 	b_e_turn	= 255
      0005B5                       1611 _e_turn::
      0005B5 E8 FC            [16] 1612 	add	sp, #-4
                           0005B7  1613 	C$UtilEnemy.c$198$1_0$241	= .
                                   1614 	.globl	C$UtilEnemy.c$198$1_0$241
                                   1615 ;UtilEnemy.c:198: struct EnemyInfo* e_data = (struct EnemyInfo*) s_enemy->custom_data;
      0005B7 F8 0A            [12] 1616 	ldhl	sp,	#10
      0005B9 7E               [ 8] 1617 	ld	a, (hl)
      0005BA F8 00            [12] 1618 	ldhl	sp,	#0
      0005BC 77               [ 8] 1619 	ld	(hl), a
      0005BD F8 0B            [12] 1620 	ldhl	sp,	#11
      0005BF 7E               [ 8] 1621 	ld	a, (hl)
      0005C0 F8 01            [12] 1622 	ldhl	sp,	#1
      0005C2 77               [ 8] 1623 	ld	(hl), a
      0005C3 D1               [12] 1624 	pop	de
      0005C4 D5               [16] 1625 	push	de
      0005C5 21 1B 00         [12] 1626 	ld	hl, #0x001b
      0005C8 19               [ 8] 1627 	add	hl, de
      0005C9 4D               [ 4] 1628 	ld	c, l
      0005CA 44               [ 4] 1629 	ld	b, h
      0005CB F8 02            [12] 1630 	ldhl	sp,	#2
      0005CD 79               [ 4] 1631 	ld	a, c
      0005CE 22               [ 8] 1632 	ld	(hl+), a
                           0005CF  1633 	C$UtilEnemy.c$200$1_0$241	= .
                                   1634 	.globl	C$UtilEnemy.c$200$1_0$241
                                   1635 ;UtilEnemy.c:200: if(e_data->wait > 120u){
      0005CF 78               [ 4] 1636 	ld	a, b
      0005D0 32               [ 8] 1637 	ld	(hl-), a
      0005D1 2A               [ 8] 1638 	ld	a, (hl+)
      0005D2 5F               [ 4] 1639 	ld	e, a
      0005D3 56               [ 8] 1640 	ld	d, (hl)
      0005D4 21 04 00         [12] 1641 	ld	hl, #0x0004
      0005D7 19               [ 8] 1642 	add	hl, de
      0005D8 4D               [ 4] 1643 	ld	c, l
      0005D9 44               [ 4] 1644 	ld	b, h
      0005DA 0A               [ 8] 1645 	ld	a, (bc)
      0005DB 4F               [ 4] 1646 	ld	c, a
      0005DC 3E 78            [ 8] 1647 	ld	a, #0x78
      0005DE 91               [ 4] 1648 	sub	a, c
      0005DF 30 04            [12] 1649 	jr	NC, 00102$
                           0005E1  1650 	C$UtilEnemy.c$201$2_0$242	= .
                                   1651 	.globl	C$UtilEnemy.c$201$2_0$242
                                   1652 ;UtilEnemy.c:201: wise = TURN_CLOCKWISE;
      0005E1 06 01            [ 8] 1653 	ld	b, #0x01
      0005E3 18 02            [12] 1654 	jr	00103$
      0005E5                       1655 00102$:
                           0005E5  1656 	C$UtilEnemy.c$203$2_0$243	= .
                                   1657 	.globl	C$UtilEnemy.c$203$2_0$243
                                   1658 ;UtilEnemy.c:203: wise = TURN_COUNTERCLOCKWISE;
      0005E5 06 02            [ 8] 1659 	ld	b, #0x02
      0005E7                       1660 00103$:
                           0005E7  1661 	C$UtilEnemy.c$205$1_0$241	= .
                                   1662 	.globl	C$UtilEnemy.c$205$1_0$241
                                   1663 ;UtilEnemy.c:205: e_data->e_configured++;//used as a counter on same turn wise
      0005E7 F8 02            [12] 1664 	ldhl	sp,#2
      0005E9 2A               [ 8] 1665 	ld	a, (hl+)
      0005EA 5F               [ 4] 1666 	ld	e, a
      0005EB 56               [ 8] 1667 	ld	d, (hl)
      0005EC 21 06 00         [12] 1668 	ld	hl, #0x0006
      0005EF 19               [ 8] 1669 	add	hl, de
      0005F0 5D               [ 4] 1670 	ld	e, l
      0005F1 54               [ 4] 1671 	ld	d, h
      0005F2 1A               [ 8] 1672 	ld	a, (de)
      0005F3 3C               [ 4] 1673 	inc	a
      0005F4 12               [ 8] 1674 	ld	(de), a
                           0005F5  1675 	C$UtilEnemy.c$206$1_0$241	= .
                                   1676 	.globl	C$UtilEnemy.c$206$1_0$241
                                   1677 ;UtilEnemy.c:206: if(e_data->e_configured < 5 && wise == TURN_COUNTERCLOCKWISE){
      0005F5 D6 05            [ 8] 1678 	sub	a, #0x05
      0005F7 30 09            [12] 1679 	jr	NC, 00111$
      0005F9 78               [ 4] 1680 	ld	a, b
      0005FA D6 02            [ 8] 1681 	sub	a, #0x02
      0005FC 20 04            [12] 1682 	jr	NZ, 00111$
                           0005FE  1683 	C$UtilEnemy.c$207$2_0$244	= .
                                   1684 	.globl	C$UtilEnemy.c$207$2_0$244
                                   1685 ;UtilEnemy.c:207: wise = TURN_CLOCKWISE;
      0005FE 06 01            [ 8] 1686 	ld	b, #0x01
      000600 18 1B            [12] 1687 	jr	00112$
      000602                       1688 00111$:
                           000602  1689 	C$UtilEnemy.c$205$1_0$241	= .
                                   1690 	.globl	C$UtilEnemy.c$205$1_0$241
                                   1691 ;UtilEnemy.c:205: e_data->e_configured++;//used as a counter on same turn wise
      000602 1A               [ 8] 1692 	ld	a, (de)
                           000603  1693 	C$UtilEnemy.c$208$1_0$241	= .
                                   1694 	.globl	C$UtilEnemy.c$208$1_0$241
                                   1695 ;UtilEnemy.c:208: }else if(e_data->e_configured < 9 && wise == TURN_CLOCKWISE){
      000603 D6 09            [ 8] 1696 	sub	a, #0x09
      000605 3E 00            [ 8] 1697 	ld	a, #0x00
      000607 17               [ 4] 1698 	rla
      000608 4F               [ 4] 1699 	ld	c, a
      000609 B7               [ 4] 1700 	or	a, a
      00060A 28 08            [12] 1701 	jr	Z, 00107$
      00060C 78               [ 4] 1702 	ld	a, b
      00060D 3D               [ 4] 1703 	dec	a
      00060E 20 04            [12] 1704 	jr	NZ, 00107$
                           000610  1705 	C$UtilEnemy.c$209$2_0$245	= .
                                   1706 	.globl	C$UtilEnemy.c$209$2_0$245
                                   1707 ;UtilEnemy.c:209: wise = TURN_COUNTERCLOCKWISE;
      000610 06 02            [ 8] 1708 	ld	b, #0x02
      000612 18 09            [12] 1709 	jr	00112$
      000614                       1710 00107$:
                           000614  1711 	C$UtilEnemy.c$210$1_0$241	= .
                                   1712 	.globl	C$UtilEnemy.c$210$1_0$241
                                   1713 ;UtilEnemy.c:210: }else if(e_data->e_configured >= 9){
      000614 CB 41            [ 8] 1714 	bit	0, c
      000616 20 05            [12] 1715 	jr	NZ, 00112$
                           000618  1716 	C$UtilEnemy.c$211$2_0$246	= .
                                   1717 	.globl	C$UtilEnemy.c$211$2_0$246
                                   1718 ;UtilEnemy.c:211: wise = TURN_OPPOSITE;
      000618 06 03            [ 8] 1719 	ld	b, #0x03
                           00061A  1720 	C$UtilEnemy.c$212$2_0$246	= .
                                   1721 	.globl	C$UtilEnemy.c$212$2_0$246
                                   1722 ;UtilEnemy.c:212: e_data->e_configured = 1;
      00061A 3E 01            [ 8] 1723 	ld	a, #0x01
      00061C 12               [ 8] 1724 	ld	(de), a
      00061D                       1725 00112$:
                           00061D  1726 	C$UtilEnemy.c$216$1_0$241	= .
                                   1727 	.globl	C$UtilEnemy.c$216$1_0$241
                                   1728 ;UtilEnemy.c:216: switch(e_data->e_state){
      00061D F8 02            [12] 1729 	ldhl	sp,#2
      00061F 2A               [ 8] 1730 	ld	a, (hl+)
      000620 5F               [ 4] 1731 	ld	e, a
      000621 56               [ 8] 1732 	ld	d, (hl)
      000622 1A               [ 8] 1733 	ld	a, (de)
                                   1734 ;	spillPairReg hl
                                   1735 ;	spillPairReg hl
      000623 6F               [ 4] 1736 	ld	l, a
      000624 D6 06            [ 8] 1737 	sub	a, #0x06
      000626 3E 01            [ 8] 1738 	ld	a, #0x01
      000628 28 01            [12] 1739 	jr	Z, 00328$
      00062A AF               [ 4] 1740 	xor	a, a
      00062B                       1741 00328$:
      00062B 4F               [ 4] 1742 	ld	c, a
      00062C 7D               [ 4] 1743 	ld	a, l
      00062D D6 07            [ 8] 1744 	sub	a, #0x07
      00062F 3E 01            [ 8] 1745 	ld	a, #0x01
      000631 28 01            [12] 1746 	jr	Z, 00330$
      000633 AF               [ 4] 1747 	xor	a, a
      000634                       1748 00330$:
      000634 5F               [ 4] 1749 	ld	e, a
      000635 7D               [ 4] 1750 	ld	a, l
      000636 D6 08            [ 8] 1751 	sub	a, #0x08
      000638 3E 01            [ 8] 1752 	ld	a, #0x01
      00063A 28 01            [12] 1753 	jr	Z, 00332$
      00063C AF               [ 4] 1754 	xor	a, a
      00063D                       1755 00332$:
      00063D 57               [ 4] 1756 	ld	d, a
      00063E 7D               [ 4] 1757 	ld	a, l
      00063F D6 09            [ 8] 1758 	sub	a, #0x09
      000641 3E 01            [ 8] 1759 	ld	a, #0x01
      000643 28 01            [12] 1760 	jr	Z, 00334$
      000645 AF               [ 4] 1761 	xor	a, a
      000646                       1762 00334$:
      000646 6F               [ 4] 1763 	ld	l, a
                                   1764 ;	spillPairReg hl
                                   1765 ;	spillPairReg hl
                           000647  1766 	C$UtilEnemy.c$214$1_0$241	= .
                                   1767 	.globl	C$UtilEnemy.c$214$1_0$241
                                   1768 ;UtilEnemy.c:214: switch(wise){
      000647 78               [ 4] 1769 	ld	a, b
      000648 3D               [ 4] 1770 	dec	a
      000649 28 0D            [12] 1771 	jr	Z, 00114$
      00064B 78               [ 4] 1772 	ld	a,b
      00064C FE 02            [ 8] 1773 	cp	a,#0x02
      00064E 28 7A            [12] 1774 	jr	Z, 00120$
      000650 D6 03            [ 8] 1775 	sub	a, #0x03
      000652 CAr3Br07         [16] 1776 	jp	Z,00126$
      000655 C3rA6r07         [16] 1777 	jp	00132$
                           000658  1778 	C$UtilEnemy.c$215$2_0$247	= .
                                   1779 	.globl	C$UtilEnemy.c$215$2_0$247
                                   1780 ;UtilEnemy.c:215: case TURN_CLOCKWISE:
      000658                       1781 00114$:
                           000658  1782 	C$UtilEnemy.c$216$2_0$247	= .
                                   1783 	.globl	C$UtilEnemy.c$216$2_0$247
                                   1784 ;UtilEnemy.c:216: switch(e_data->e_state){
      000658 79               [ 4] 1785 	ld	a, c
      000659 B7               [ 4] 1786 	or	a,a
      00065A 20 23            [12] 1787 	jr	NZ, 00116$
      00065C B3               [ 4] 1788 	or	a,e
      00065D 20 52            [12] 1789 	jr	NZ, 00118$
      00065F B2               [ 4] 1790 	or	a,d
      000660 20 36            [12] 1791 	jr	NZ, 00117$
      000662 B5               [ 4] 1792 	or	a,l
      000663 CArA6r07         [16] 1793 	jp	Z, 00132$
                           000666  1794 	C$UtilEnemy.c$217$3_0$248	= .
                                   1795 	.globl	C$UtilEnemy.c$217$3_0$248
                                   1796 ;UtilEnemy.c:217: case WALK_DOWN: e_change_state(s_enemy, IDLE_LEFT, e_sprite_type); break;
      000666 F8 0C            [12] 1797 	ldhl	sp,	#12
      000668 66               [ 8] 1798 	ld	h, (hl)
      000669 2E 04            [ 8] 1799 	ld	l, #0x04
      00066B E5               [16] 1800 	push	hl
      00066C F8 02            [12] 1801 	ldhl	sp,	#2
      00066E 2A               [ 8] 1802 	ld	a, (hl+)
      00066F 5F               [ 4] 1803 	ld	e, a
      000670 56               [ 8] 1804 	ld	d, (hl)
      000671 D5               [16] 1805 	push	de
      000672 1Er00            [ 8] 1806 	ld	e, #b_e_change_state
      000674 21r74r00         [12] 1807 	ld	hl, #_e_change_state
      000677 CDr00r00         [24] 1808 	call	___sdcc_bcall_ehl
      00067A E8 04            [16] 1809 	add	sp, #4
      00067C C3rA6r07         [16] 1810 	jp	00132$
                           00067F  1811 	C$UtilEnemy.c$218$3_0$248	= .
                                   1812 	.globl	C$UtilEnemy.c$218$3_0$248
                                   1813 ;UtilEnemy.c:218: case WALK_LEFT: e_change_state(s_enemy, IDLE_UP, e_sprite_type); break;
      00067F                       1814 00116$:
      00067F F8 0C            [12] 1815 	ldhl	sp,	#12
      000681 66               [ 8] 1816 	ld	h, (hl)
      000682 2E 02            [ 8] 1817 	ld	l, #0x02
      000684 E5               [16] 1818 	push	hl
      000685 F8 02            [12] 1819 	ldhl	sp,	#2
      000687 2A               [ 8] 1820 	ld	a, (hl+)
      000688 5F               [ 4] 1821 	ld	e, a
      000689 56               [ 8] 1822 	ld	d, (hl)
      00068A D5               [16] 1823 	push	de
      00068B 1Er00            [ 8] 1824 	ld	e, #b_e_change_state
      00068D 21r74r00         [12] 1825 	ld	hl, #_e_change_state
      000690 CDr00r00         [24] 1826 	call	___sdcc_bcall_ehl
      000693 E8 04            [16] 1827 	add	sp, #4
      000695 C3rA6r07         [16] 1828 	jp	00132$
                           000698  1829 	C$UtilEnemy.c$219$3_0$248	= .
                                   1830 	.globl	C$UtilEnemy.c$219$3_0$248
                                   1831 ;UtilEnemy.c:219: case WALK_UP: e_change_state(s_enemy, IDLE_RIGHT, e_sprite_type); break;
      000698                       1832 00117$:
      000698 F8 0C            [12] 1833 	ldhl	sp,	#12
      00069A 66               [ 8] 1834 	ld	h, (hl)
      00069B 2E 05            [ 8] 1835 	ld	l, #0x05
      00069D E5               [16] 1836 	push	hl
      00069E F8 02            [12] 1837 	ldhl	sp,	#2
      0006A0 2A               [ 8] 1838 	ld	a, (hl+)
      0006A1 5F               [ 4] 1839 	ld	e, a
      0006A2 56               [ 8] 1840 	ld	d, (hl)
      0006A3 D5               [16] 1841 	push	de
      0006A4 1Er00            [ 8] 1842 	ld	e, #b_e_change_state
      0006A6 21r74r00         [12] 1843 	ld	hl, #_e_change_state
      0006A9 CDr00r00         [24] 1844 	call	___sdcc_bcall_ehl
      0006AC E8 04            [16] 1845 	add	sp, #4
      0006AE C3rA6r07         [16] 1846 	jp	00132$
                           0006B1  1847 	C$UtilEnemy.c$220$3_0$248	= .
                                   1848 	.globl	C$UtilEnemy.c$220$3_0$248
                                   1849 ;UtilEnemy.c:220: case WALK_RIGHT: e_change_state(s_enemy, IDLE_DOWN, e_sprite_type); break;
      0006B1                       1850 00118$:
      0006B1 F8 0C            [12] 1851 	ldhl	sp,	#12
      0006B3 66               [ 8] 1852 	ld	h, (hl)
      0006B4 2E 03            [ 8] 1853 	ld	l, #0x03
      0006B6 E5               [16] 1854 	push	hl
      0006B7 F8 02            [12] 1855 	ldhl	sp,	#2
      0006B9 2A               [ 8] 1856 	ld	a, (hl+)
      0006BA 5F               [ 4] 1857 	ld	e, a
      0006BB 56               [ 8] 1858 	ld	d, (hl)
      0006BC D5               [16] 1859 	push	de
      0006BD 1Er00            [ 8] 1860 	ld	e, #b_e_change_state
      0006BF 21r74r00         [12] 1861 	ld	hl, #_e_change_state
      0006C2 CDr00r00         [24] 1862 	call	___sdcc_bcall_ehl
      0006C5 E8 04            [16] 1863 	add	sp, #4
                           0006C7  1864 	C$UtilEnemy.c$222$2_0$247	= .
                                   1865 	.globl	C$UtilEnemy.c$222$2_0$247
                                   1866 ;UtilEnemy.c:222: break;
      0006C7 C3rA6r07         [16] 1867 	jp	00132$
                           0006CA  1868 	C$UtilEnemy.c$223$2_0$247	= .
                                   1869 	.globl	C$UtilEnemy.c$223$2_0$247
                                   1870 ;UtilEnemy.c:223: case TURN_COUNTERCLOCKWISE:        
      0006CA                       1871 00120$:
                           0006CA  1872 	C$UtilEnemy.c$224$2_0$247	= .
                                   1873 	.globl	C$UtilEnemy.c$224$2_0$247
                                   1874 ;UtilEnemy.c:224: switch(e_data->e_state){
      0006CA 79               [ 4] 1875 	ld	a, c
      0006CB B7               [ 4] 1876 	or	a,a
      0006CC 20 23            [12] 1877 	jr	NZ, 00122$
      0006CE B3               [ 4] 1878 	or	a,e
      0006CF 20 52            [12] 1879 	jr	NZ, 00124$
      0006D1 B2               [ 4] 1880 	or	a,d
      0006D2 20 36            [12] 1881 	jr	NZ, 00123$
      0006D4 B5               [ 4] 1882 	or	a,l
      0006D5 CArA6r07         [16] 1883 	jp	Z, 00132$
                           0006D8  1884 	C$UtilEnemy.c$225$3_0$249	= .
                                   1885 	.globl	C$UtilEnemy.c$225$3_0$249
                                   1886 ;UtilEnemy.c:225: case WALK_DOWN: e_change_state(s_enemy, IDLE_RIGHT, e_sprite_type); break;
      0006D8 F8 0C            [12] 1887 	ldhl	sp,	#12
      0006DA 66               [ 8] 1888 	ld	h, (hl)
      0006DB 2E 05            [ 8] 1889 	ld	l, #0x05
      0006DD E5               [16] 1890 	push	hl
      0006DE F8 02            [12] 1891 	ldhl	sp,	#2
      0006E0 2A               [ 8] 1892 	ld	a, (hl+)
      0006E1 5F               [ 4] 1893 	ld	e, a
      0006E2 56               [ 8] 1894 	ld	d, (hl)
      0006E3 D5               [16] 1895 	push	de
      0006E4 1Er00            [ 8] 1896 	ld	e, #b_e_change_state
      0006E6 21r74r00         [12] 1897 	ld	hl, #_e_change_state
      0006E9 CDr00r00         [24] 1898 	call	___sdcc_bcall_ehl
      0006EC E8 04            [16] 1899 	add	sp, #4
      0006EE C3rA6r07         [16] 1900 	jp	00132$
                           0006F1  1901 	C$UtilEnemy.c$226$3_0$249	= .
                                   1902 	.globl	C$UtilEnemy.c$226$3_0$249
                                   1903 ;UtilEnemy.c:226: case WALK_LEFT: e_change_state(s_enemy, IDLE_DOWN, e_sprite_type); break;
      0006F1                       1904 00122$:
      0006F1 F8 0C            [12] 1905 	ldhl	sp,	#12
      0006F3 66               [ 8] 1906 	ld	h, (hl)
      0006F4 2E 03            [ 8] 1907 	ld	l, #0x03
      0006F6 E5               [16] 1908 	push	hl
      0006F7 F8 02            [12] 1909 	ldhl	sp,	#2
      0006F9 2A               [ 8] 1910 	ld	a, (hl+)
      0006FA 5F               [ 4] 1911 	ld	e, a
      0006FB 56               [ 8] 1912 	ld	d, (hl)
      0006FC D5               [16] 1913 	push	de
      0006FD 1Er00            [ 8] 1914 	ld	e, #b_e_change_state
      0006FF 21r74r00         [12] 1915 	ld	hl, #_e_change_state
      000702 CDr00r00         [24] 1916 	call	___sdcc_bcall_ehl
      000705 E8 04            [16] 1917 	add	sp, #4
      000707 C3rA6r07         [16] 1918 	jp	00132$
                           00070A  1919 	C$UtilEnemy.c$227$3_0$249	= .
                                   1920 	.globl	C$UtilEnemy.c$227$3_0$249
                                   1921 ;UtilEnemy.c:227: case WALK_UP: e_change_state(s_enemy, IDLE_LEFT, e_sprite_type); break;
      00070A                       1922 00123$:
      00070A F8 0C            [12] 1923 	ldhl	sp,	#12
      00070C 66               [ 8] 1924 	ld	h, (hl)
      00070D 2E 04            [ 8] 1925 	ld	l, #0x04
      00070F E5               [16] 1926 	push	hl
      000710 F8 02            [12] 1927 	ldhl	sp,	#2
      000712 2A               [ 8] 1928 	ld	a, (hl+)
      000713 5F               [ 4] 1929 	ld	e, a
      000714 56               [ 8] 1930 	ld	d, (hl)
      000715 D5               [16] 1931 	push	de
      000716 1Er00            [ 8] 1932 	ld	e, #b_e_change_state
      000718 21r74r00         [12] 1933 	ld	hl, #_e_change_state
      00071B CDr00r00         [24] 1934 	call	___sdcc_bcall_ehl
      00071E E8 04            [16] 1935 	add	sp, #4
      000720 C3rA6r07         [16] 1936 	jp	00132$
                           000723  1937 	C$UtilEnemy.c$228$3_0$249	= .
                                   1938 	.globl	C$UtilEnemy.c$228$3_0$249
                                   1939 ;UtilEnemy.c:228: case WALK_RIGHT: e_change_state(s_enemy, IDLE_UP, e_sprite_type); break;
      000723                       1940 00124$:
      000723 F8 0C            [12] 1941 	ldhl	sp,	#12
      000725 66               [ 8] 1942 	ld	h, (hl)
      000726 2E 02            [ 8] 1943 	ld	l, #0x02
      000728 E5               [16] 1944 	push	hl
      000729 F8 02            [12] 1945 	ldhl	sp,	#2
      00072B 2A               [ 8] 1946 	ld	a, (hl+)
      00072C 5F               [ 4] 1947 	ld	e, a
      00072D 56               [ 8] 1948 	ld	d, (hl)
      00072E D5               [16] 1949 	push	de
      00072F 1Er00            [ 8] 1950 	ld	e, #b_e_change_state
      000731 21r74r00         [12] 1951 	ld	hl, #_e_change_state
      000734 CDr00r00         [24] 1952 	call	___sdcc_bcall_ehl
      000737 E8 04            [16] 1953 	add	sp, #4
                           000739  1954 	C$UtilEnemy.c$230$2_0$247	= .
                                   1955 	.globl	C$UtilEnemy.c$230$2_0$247
                                   1956 ;UtilEnemy.c:230: break;
      000739 18 6B            [12] 1957 	jr	00132$
                           00073B  1958 	C$UtilEnemy.c$231$2_0$247	= .
                                   1959 	.globl	C$UtilEnemy.c$231$2_0$247
                                   1960 ;UtilEnemy.c:231: case TURN_OPPOSITE:
      00073B                       1961 00126$:
                           00073B  1962 	C$UtilEnemy.c$232$2_0$247	= .
                                   1963 	.globl	C$UtilEnemy.c$232$2_0$247
                                   1964 ;UtilEnemy.c:232: switch(e_data->e_state){
      00073B 79               [ 4] 1965 	ld	a, c
      00073C B7               [ 4] 1966 	or	a,a
      00073D 20 21            [12] 1967 	jr	NZ, 00128$
      00073F B3               [ 4] 1968 	or	a,e
      000740 20 4E            [12] 1969 	jr	NZ, 00130$
      000742 B2               [ 4] 1970 	or	a,d
      000743 20 33            [12] 1971 	jr	NZ, 00129$
      000745 B5               [ 4] 1972 	or	a,l
      000746 28 5E            [12] 1973 	jr	Z, 00132$
                           000748  1974 	C$UtilEnemy.c$233$3_0$250	= .
                                   1975 	.globl	C$UtilEnemy.c$233$3_0$250
                                   1976 ;UtilEnemy.c:233: case WALK_DOWN: e_change_state(s_enemy, IDLE_UP, e_sprite_type); break;
      000748 F8 0C            [12] 1977 	ldhl	sp,	#12
      00074A 66               [ 8] 1978 	ld	h, (hl)
      00074B 2E 02            [ 8] 1979 	ld	l, #0x02
      00074D E5               [16] 1980 	push	hl
      00074E F8 02            [12] 1981 	ldhl	sp,	#2
      000750 2A               [ 8] 1982 	ld	a, (hl+)
      000751 5F               [ 4] 1983 	ld	e, a
      000752 56               [ 8] 1984 	ld	d, (hl)
      000753 D5               [16] 1985 	push	de
      000754 1Er00            [ 8] 1986 	ld	e, #b_e_change_state
      000756 21r74r00         [12] 1987 	ld	hl, #_e_change_state
      000759 CDr00r00         [24] 1988 	call	___sdcc_bcall_ehl
      00075C E8 04            [16] 1989 	add	sp, #4
      00075E 18 46            [12] 1990 	jr	00132$
                           000760  1991 	C$UtilEnemy.c$234$3_0$250	= .
                                   1992 	.globl	C$UtilEnemy.c$234$3_0$250
                                   1993 ;UtilEnemy.c:234: case WALK_LEFT: e_change_state(s_enemy, IDLE_RIGHT, e_sprite_type); break;
      000760                       1994 00128$:
      000760 F8 0C            [12] 1995 	ldhl	sp,	#12
      000762 66               [ 8] 1996 	ld	h, (hl)
      000763 2E 05            [ 8] 1997 	ld	l, #0x05
      000765 E5               [16] 1998 	push	hl
      000766 F8 02            [12] 1999 	ldhl	sp,	#2
      000768 2A               [ 8] 2000 	ld	a, (hl+)
      000769 5F               [ 4] 2001 	ld	e, a
      00076A 56               [ 8] 2002 	ld	d, (hl)
      00076B D5               [16] 2003 	push	de
      00076C 1Er00            [ 8] 2004 	ld	e, #b_e_change_state
      00076E 21r74r00         [12] 2005 	ld	hl, #_e_change_state
      000771 CDr00r00         [24] 2006 	call	___sdcc_bcall_ehl
      000774 E8 04            [16] 2007 	add	sp, #4
      000776 18 2E            [12] 2008 	jr	00132$
                           000778  2009 	C$UtilEnemy.c$235$3_0$250	= .
                                   2010 	.globl	C$UtilEnemy.c$235$3_0$250
                                   2011 ;UtilEnemy.c:235: case WALK_UP: e_change_state(s_enemy, IDLE_DOWN, e_sprite_type); break;
      000778                       2012 00129$:
      000778 F8 0C            [12] 2013 	ldhl	sp,	#12
      00077A 66               [ 8] 2014 	ld	h, (hl)
      00077B 2E 03            [ 8] 2015 	ld	l, #0x03
      00077D E5               [16] 2016 	push	hl
      00077E F8 02            [12] 2017 	ldhl	sp,	#2
      000780 2A               [ 8] 2018 	ld	a, (hl+)
      000781 5F               [ 4] 2019 	ld	e, a
      000782 56               [ 8] 2020 	ld	d, (hl)
      000783 D5               [16] 2021 	push	de
      000784 1Er00            [ 8] 2022 	ld	e, #b_e_change_state
      000786 21r74r00         [12] 2023 	ld	hl, #_e_change_state
      000789 CDr00r00         [24] 2024 	call	___sdcc_bcall_ehl
      00078C E8 04            [16] 2025 	add	sp, #4
      00078E 18 16            [12] 2026 	jr	00132$
                           000790  2027 	C$UtilEnemy.c$236$3_0$250	= .
                                   2028 	.globl	C$UtilEnemy.c$236$3_0$250
                                   2029 ;UtilEnemy.c:236: case WALK_RIGHT: e_change_state(s_enemy, IDLE_LEFT, e_sprite_type); break;
      000790                       2030 00130$:
      000790 F8 0C            [12] 2031 	ldhl	sp,	#12
      000792 66               [ 8] 2032 	ld	h, (hl)
      000793 2E 04            [ 8] 2033 	ld	l, #0x04
      000795 E5               [16] 2034 	push	hl
      000796 F8 02            [12] 2035 	ldhl	sp,	#2
      000798 2A               [ 8] 2036 	ld	a, (hl+)
      000799 5F               [ 4] 2037 	ld	e, a
      00079A 56               [ 8] 2038 	ld	d, (hl)
      00079B D5               [16] 2039 	push	de
      00079C 1Er00            [ 8] 2040 	ld	e, #b_e_change_state
      00079E 21r74r00         [12] 2041 	ld	hl, #_e_change_state
      0007A1 CDr00r00         [24] 2042 	call	___sdcc_bcall_ehl
      0007A4 E8 04            [16] 2043 	add	sp, #4
                           0007A6  2044 	C$UtilEnemy.c$239$1_0$241	= .
                                   2045 	.globl	C$UtilEnemy.c$239$1_0$241
                                   2046 ;UtilEnemy.c:239: }
      0007A6                       2047 00132$:
                           0007A6  2048 	C$UtilEnemy.c$241$1_0$241	= .
                                   2049 	.globl	C$UtilEnemy.c$241$1_0$241
                                   2050 ;UtilEnemy.c:241: switch(e_data->e_state){
      0007A6 F8 02            [12] 2051 	ldhl	sp,#2
      0007A8 2A               [ 8] 2052 	ld	a, (hl+)
      0007A9 5F               [ 4] 2053 	ld	e, a
      0007AA 56               [ 8] 2054 	ld	d, (hl)
      0007AB 1A               [ 8] 2055 	ld	a, (de)
      0007AC FE 01            [ 8] 2056 	cp	a, #0x01
      0007AE 28 72            [12] 2057 	jr	Z, 00137$
      0007B0 FE 02            [ 8] 2058 	cp	a, #0x02
      0007B2 28 3E            [12] 2059 	jr	Z, 00135$
      0007B4 FE 03            [ 8] 2060 	cp	a, #0x03
      0007B6 28 52            [12] 2061 	jr	Z, 00136$
      0007B8 FE 04            [ 8] 2062 	cp	a, #0x04
      0007BA 28 06            [12] 2063 	jr	Z, 00133$
      0007BC D6 05            [ 8] 2064 	sub	a, #0x05
      0007BE 28 1A            [12] 2065 	jr	Z, 00134$
      0007C0 18 76            [12] 2066 	jr	00139$
                           0007C2  2067 	C$UtilEnemy.c$242$2_0$251	= .
                                   2068 	.globl	C$UtilEnemy.c$242$2_0$251
                                   2069 ;UtilEnemy.c:242: case IDLE_LEFT: 
      0007C2                       2070 00133$:
                           0007C2  2071 	C$UtilEnemy.c$243$2_0$251	= .
                                   2072 	.globl	C$UtilEnemy.c$243$2_0$251
                                   2073 ;UtilEnemy.c:243: e_change_state(s_enemy, WALK_LEFT, e_sprite_type); break;
      0007C2 F8 0C            [12] 2074 	ldhl	sp,	#12
      0007C4 3A               [ 8] 2075 	ld	a, (hl-)
      0007C5 2B               [ 8] 2076 	dec	hl
      0007C6 57               [ 4] 2077 	ld	d, a
      0007C7 1E 06            [ 8] 2078 	ld	e, #0x06
      0007C9 D5               [16] 2079 	push	de
      0007CA 2A               [ 8] 2080 	ld	a, (hl+)
      0007CB 5F               [ 4] 2081 	ld	e, a
      0007CC 56               [ 8] 2082 	ld	d, (hl)
      0007CD D5               [16] 2083 	push	de
      0007CE 1Er00            [ 8] 2084 	ld	e, #b_e_change_state
      0007D0 21r74r00         [12] 2085 	ld	hl, #_e_change_state
      0007D3 CDr00r00         [24] 2086 	call	___sdcc_bcall_ehl
      0007D6 E8 04            [16] 2087 	add	sp, #4
      0007D8 18 5E            [12] 2088 	jr	00139$
                           0007DA  2089 	C$UtilEnemy.c$244$2_0$251	= .
                                   2090 	.globl	C$UtilEnemy.c$244$2_0$251
                                   2091 ;UtilEnemy.c:244: case IDLE_RIGHT: 
      0007DA                       2092 00134$:
                           0007DA  2093 	C$UtilEnemy.c$245$2_0$251	= .
                                   2094 	.globl	C$UtilEnemy.c$245$2_0$251
                                   2095 ;UtilEnemy.c:245: e_change_state(s_enemy, WALK_RIGHT, e_sprite_type); break;
      0007DA F8 0C            [12] 2096 	ldhl	sp,	#12
      0007DC 3A               [ 8] 2097 	ld	a, (hl-)
      0007DD 2B               [ 8] 2098 	dec	hl
      0007DE 57               [ 4] 2099 	ld	d, a
      0007DF 1E 07            [ 8] 2100 	ld	e, #0x07
      0007E1 D5               [16] 2101 	push	de
      0007E2 2A               [ 8] 2102 	ld	a, (hl+)
      0007E3 5F               [ 4] 2103 	ld	e, a
      0007E4 56               [ 8] 2104 	ld	d, (hl)
      0007E5 D5               [16] 2105 	push	de
      0007E6 1Er00            [ 8] 2106 	ld	e, #b_e_change_state
      0007E8 21r74r00         [12] 2107 	ld	hl, #_e_change_state
      0007EB CDr00r00         [24] 2108 	call	___sdcc_bcall_ehl
      0007EE E8 04            [16] 2109 	add	sp, #4
      0007F0 18 46            [12] 2110 	jr	00139$
                           0007F2  2111 	C$UtilEnemy.c$246$2_0$251	= .
                                   2112 	.globl	C$UtilEnemy.c$246$2_0$251
                                   2113 ;UtilEnemy.c:246: case IDLE_UP: 
      0007F2                       2114 00135$:
                           0007F2  2115 	C$UtilEnemy.c$247$2_0$251	= .
                                   2116 	.globl	C$UtilEnemy.c$247$2_0$251
                                   2117 ;UtilEnemy.c:247: e_change_state(s_enemy, WALK_UP, e_sprite_type); break;
      0007F2 F8 0C            [12] 2118 	ldhl	sp,	#12
      0007F4 3A               [ 8] 2119 	ld	a, (hl-)
      0007F5 2B               [ 8] 2120 	dec	hl
      0007F6 57               [ 4] 2121 	ld	d, a
      0007F7 1E 08            [ 8] 2122 	ld	e, #0x08
      0007F9 D5               [16] 2123 	push	de
      0007FA 2A               [ 8] 2124 	ld	a, (hl+)
      0007FB 5F               [ 4] 2125 	ld	e, a
      0007FC 56               [ 8] 2126 	ld	d, (hl)
      0007FD D5               [16] 2127 	push	de
      0007FE 1Er00            [ 8] 2128 	ld	e, #b_e_change_state
      000800 21r74r00         [12] 2129 	ld	hl, #_e_change_state
      000803 CDr00r00         [24] 2130 	call	___sdcc_bcall_ehl
      000806 E8 04            [16] 2131 	add	sp, #4
      000808 18 2E            [12] 2132 	jr	00139$
                           00080A  2133 	C$UtilEnemy.c$248$2_0$251	= .
                                   2134 	.globl	C$UtilEnemy.c$248$2_0$251
                                   2135 ;UtilEnemy.c:248: case IDLE_DOWN: 
      00080A                       2136 00136$:
                           00080A  2137 	C$UtilEnemy.c$249$2_0$251	= .
                                   2138 	.globl	C$UtilEnemy.c$249$2_0$251
                                   2139 ;UtilEnemy.c:249: e_change_state(s_enemy, WALK_DOWN, e_sprite_type); break;
      00080A F8 0C            [12] 2140 	ldhl	sp,	#12
      00080C 3A               [ 8] 2141 	ld	a, (hl-)
      00080D 2B               [ 8] 2142 	dec	hl
      00080E 57               [ 4] 2143 	ld	d, a
      00080F 1E 09            [ 8] 2144 	ld	e, #0x09
      000811 D5               [16] 2145 	push	de
      000812 2A               [ 8] 2146 	ld	a, (hl+)
      000813 5F               [ 4] 2147 	ld	e, a
      000814 56               [ 8] 2148 	ld	d, (hl)
      000815 D5               [16] 2149 	push	de
      000816 1Er00            [ 8] 2150 	ld	e, #b_e_change_state
      000818 21r74r00         [12] 2151 	ld	hl, #_e_change_state
      00081B CDr00r00         [24] 2152 	call	___sdcc_bcall_ehl
      00081E E8 04            [16] 2153 	add	sp, #4
      000820 18 16            [12] 2154 	jr	00139$
                           000822  2155 	C$UtilEnemy.c$250$2_0$251	= .
                                   2156 	.globl	C$UtilEnemy.c$250$2_0$251
                                   2157 ;UtilEnemy.c:250: case GENERIC_WALK:
      000822                       2158 00137$:
                           000822  2159 	C$UtilEnemy.c$251$2_0$251	= .
                                   2160 	.globl	C$UtilEnemy.c$251$2_0$251
                                   2161 ;UtilEnemy.c:251: e_change_state(s_enemy, WALK_DOWN, e_sprite_type); break;
      000822 F8 0C            [12] 2162 	ldhl	sp,	#12
      000824 3A               [ 8] 2163 	ld	a, (hl-)
      000825 2B               [ 8] 2164 	dec	hl
      000826 57               [ 4] 2165 	ld	d, a
      000827 1E 09            [ 8] 2166 	ld	e, #0x09
      000829 D5               [16] 2167 	push	de
      00082A 2A               [ 8] 2168 	ld	a, (hl+)
      00082B 5F               [ 4] 2169 	ld	e, a
      00082C 56               [ 8] 2170 	ld	d, (hl)
      00082D D5               [16] 2171 	push	de
      00082E 1Er00            [ 8] 2172 	ld	e, #b_e_change_state
      000830 21r74r00         [12] 2173 	ld	hl, #_e_change_state
      000833 CDr00r00         [24] 2174 	call	___sdcc_bcall_ehl
      000836 E8 04            [16] 2175 	add	sp, #4
                           000838  2176 	C$UtilEnemy.c$253$1_0$241	= .
                                   2177 	.globl	C$UtilEnemy.c$253$1_0$241
                                   2178 ;UtilEnemy.c:253: }
      000838                       2179 00139$:
                           000838  2180 	C$UtilEnemy.c$254$1_0$241	= .
                                   2181 	.globl	C$UtilEnemy.c$254$1_0$241
                                   2182 ;UtilEnemy.c:254: }
      000838 E8 04            [16] 2183 	add	sp, #4
                           00083A  2184 	C$UtilEnemy.c$254$1_0$241	= .
                                   2185 	.globl	C$UtilEnemy.c$254$1_0$241
                           00083A  2186 	XG$e_turn$0$0	= .
                                   2187 	.globl	XG$e_turn$0$0
      00083A C9               [16] 2188 	ret
                           00083B  2189 	G$e_destroy$0$0	= .
                                   2190 	.globl	G$e_destroy$0$0
                           00083B  2191 	C$UtilEnemy.c$256$1_0$253	= .
                                   2192 	.globl	C$UtilEnemy.c$256$1_0$253
                                   2193 ;UtilEnemy.c:256: void e_destroy(Sprite* s_enemy, UINT8 e_sprite_type) BANKED{
                                   2194 ;	---------------------------------
                                   2195 ; Function e_destroy
                                   2196 ; ---------------------------------
                           0000FF  2197 	b_e_destroy	= 255
      00083B                       2198 _e_destroy::
                           00083B  2199 	C$UtilEnemy.c$257$1_0$253	= .
                                   2200 	.globl	C$UtilEnemy.c$257$1_0$253
                                   2201 ;UtilEnemy.c:257: e_change_state(s_enemy, DIE, e_sprite_type);
      00083B F8 08            [12] 2202 	ldhl	sp,	#8
      00083D 3A               [ 8] 2203 	ld	a, (hl-)
      00083E 2B               [ 8] 2204 	dec	hl
      00083F 57               [ 4] 2205 	ld	d, a
      000840 1E 0D            [ 8] 2206 	ld	e, #0x0d
      000842 D5               [16] 2207 	push	de
      000843 2A               [ 8] 2208 	ld	a, (hl+)
      000844 5F               [ 4] 2209 	ld	e, a
      000845 56               [ 8] 2210 	ld	d, (hl)
      000846 D5               [16] 2211 	push	de
      000847 1Er00            [ 8] 2212 	ld	e, #b_e_change_state
      000849 21r74r00         [12] 2213 	ld	hl, #_e_change_state
      00084C CDr00r00         [24] 2214 	call	___sdcc_bcall_ehl
      00084F E8 04            [16] 2215 	add	sp, #4
                           000851  2216 	C$UtilEnemy.c$258$1_0$253	= .
                                   2217 	.globl	C$UtilEnemy.c$258$1_0$253
                                   2218 ;UtilEnemy.c:258: }
                           000851  2219 	C$UtilEnemy.c$258$1_0$253	= .
                                   2220 	.globl	C$UtilEnemy.c$258$1_0$253
                           000851  2221 	XG$e_destroy$0$0	= .
                                   2222 	.globl	XG$e_destroy$0$0
      000851 C9               [16] 2223 	ret
                           000852  2224 	G$Update_UtilEnemy$0$0	= .
                                   2225 	.globl	G$Update_UtilEnemy$0$0
                           000852  2226 	C$UtilEnemy.c$260$1_0$255	= .
                                   2227 	.globl	C$UtilEnemy.c$260$1_0$255
                                   2228 ;UtilEnemy.c:260: void UPDATE(){
                                   2229 ;	---------------------------------
                                   2230 ; Function Update_UtilEnemy
                                   2231 ; ---------------------------------
      000852                       2232 _Update_UtilEnemy::
                           000852  2233 	C$UtilEnemy.c$261$1_0$255	= .
                                   2234 	.globl	C$UtilEnemy.c$261$1_0$255
                                   2235 ;UtilEnemy.c:261: }
                           000852  2236 	C$UtilEnemy.c$261$1_0$255	= .
                                   2237 	.globl	C$UtilEnemy.c$261$1_0$255
                           000852  2238 	XG$Update_UtilEnemy$0$0	= .
                                   2239 	.globl	XG$Update_UtilEnemy$0$0
      000852 C9               [16] 2240 	ret
                                   2241 	.area _CODE_255
                                   2242 	.area _INITIALIZER
                                   2243 	.area _CABS (ABS)
